   1              		.cpu cortex-m4
   2              		.eabi_attribute 27, 1
   3              		.eabi_attribute 28, 1
   4              		.eabi_attribute 20, 1
   5              		.eabi_attribute 21, 1
   6              		.eabi_attribute 23, 3
   7              		.eabi_attribute 24, 1
   8              		.eabi_attribute 25, 1
   9              		.eabi_attribute 26, 1
  10              		.eabi_attribute 30, 4
  11              		.eabi_attribute 34, 1
  12              		.eabi_attribute 18, 4
  13              		.file	"stm32g4xx_ll_rtc.c"
  14              		.text
  15              	.Ltext0:
  16              		.cfi_sections	.debug_frame
  17              		.section	.text.LL_RTC_StructInit,"ax",%progbits
  18              		.align	1
  19              		.global	LL_RTC_StructInit
  20              		.arch armv7e-m
  21              		.syntax unified
  22              		.thumb
  23              		.thumb_func
  24              		.fpu fpv4-sp-d16
  26              	LL_RTC_StructInit:
  27              	.LVL0:
  28              	.LFB396:
  29              		.file 1 "../../..\\CubeG4\\src\\stm32g4xx_ll_rtc.c"
   1:../../..\CubeG4\src/stm32g4xx_ll_rtc.c **** /**
   2:../../..\CubeG4\src/stm32g4xx_ll_rtc.c ****   ******************************************************************************
   3:../../..\CubeG4\src/stm32g4xx_ll_rtc.c ****   * @file    stm32g4xx_ll_rtc.c
   4:../../..\CubeG4\src/stm32g4xx_ll_rtc.c ****   * @author  MCD Application Team
   5:../../..\CubeG4\src/stm32g4xx_ll_rtc.c ****   * @brief   RTC LL module driver.
   6:../../..\CubeG4\src/stm32g4xx_ll_rtc.c ****   ******************************************************************************
   7:../../..\CubeG4\src/stm32g4xx_ll_rtc.c ****   * @attention
   8:../../..\CubeG4\src/stm32g4xx_ll_rtc.c ****   *
   9:../../..\CubeG4\src/stm32g4xx_ll_rtc.c ****   * <h2><center>&copy; COPYRIGHT(c) 2019 STMicroelectronics</center></h2>
  10:../../..\CubeG4\src/stm32g4xx_ll_rtc.c ****   *
  11:../../..\CubeG4\src/stm32g4xx_ll_rtc.c ****   * This software component is licensed by ST under BSD 3-Clause license,
  12:../../..\CubeG4\src/stm32g4xx_ll_rtc.c ****   * the "License"; You may not use this file except in compliance with the
  13:../../..\CubeG4\src/stm32g4xx_ll_rtc.c ****   * License. You may obtain a copy of the License at:
  14:../../..\CubeG4\src/stm32g4xx_ll_rtc.c ****   *                        opensource.org/licenses/BSD-3-Clause
  15:../../..\CubeG4\src/stm32g4xx_ll_rtc.c ****   *
  16:../../..\CubeG4\src/stm32g4xx_ll_rtc.c ****   ******************************************************************************
  17:../../..\CubeG4\src/stm32g4xx_ll_rtc.c ****   */
  18:../../..\CubeG4\src/stm32g4xx_ll_rtc.c **** #if defined(USE_FULL_LL_DRIVER)
  19:../../..\CubeG4\src/stm32g4xx_ll_rtc.c **** 
  20:../../..\CubeG4\src/stm32g4xx_ll_rtc.c **** /* Includes ------------------------------------------------------------------*/
  21:../../..\CubeG4\src/stm32g4xx_ll_rtc.c **** #include "stm32g4xx_ll_rtc.h"
  22:../../..\CubeG4\src/stm32g4xx_ll_rtc.c **** #include "stm32g4xx_ll_cortex.h"
  23:../../..\CubeG4\src/stm32g4xx_ll_rtc.c **** #ifdef  USE_FULL_ASSERT
  24:../../..\CubeG4\src/stm32g4xx_ll_rtc.c **** #include "stm32_assert.h"
  25:../../..\CubeG4\src/stm32g4xx_ll_rtc.c **** #else  /* USE_FULL_ASSERT */
  26:../../..\CubeG4\src/stm32g4xx_ll_rtc.c **** #define assert_param(expr) ((void)0U)
  27:../../..\CubeG4\src/stm32g4xx_ll_rtc.c **** #endif /* USE_FULL_ASSERT */
  28:../../..\CubeG4\src/stm32g4xx_ll_rtc.c **** 
  29:../../..\CubeG4\src/stm32g4xx_ll_rtc.c **** /** @addtogroup STM32G4xx_LL_Driver
  30:../../..\CubeG4\src/stm32g4xx_ll_rtc.c ****   * @{
  31:../../..\CubeG4\src/stm32g4xx_ll_rtc.c ****   */
  32:../../..\CubeG4\src/stm32g4xx_ll_rtc.c **** 
  33:../../..\CubeG4\src/stm32g4xx_ll_rtc.c **** #if defined(RTC)
  34:../../..\CubeG4\src/stm32g4xx_ll_rtc.c **** 
  35:../../..\CubeG4\src/stm32g4xx_ll_rtc.c **** /** @addtogroup RTC_LL
  36:../../..\CubeG4\src/stm32g4xx_ll_rtc.c ****   * @{
  37:../../..\CubeG4\src/stm32g4xx_ll_rtc.c ****   */
  38:../../..\CubeG4\src/stm32g4xx_ll_rtc.c **** 
  39:../../..\CubeG4\src/stm32g4xx_ll_rtc.c **** /* Private types -------------------------------------------------------------*/
  40:../../..\CubeG4\src/stm32g4xx_ll_rtc.c **** /* Private variables ---------------------------------------------------------*/
  41:../../..\CubeG4\src/stm32g4xx_ll_rtc.c **** /* Private constants ---------------------------------------------------------*/
  42:../../..\CubeG4\src/stm32g4xx_ll_rtc.c **** /** @addtogroup RTC_LL_Private_Constants
  43:../../..\CubeG4\src/stm32g4xx_ll_rtc.c ****   * @{
  44:../../..\CubeG4\src/stm32g4xx_ll_rtc.c ****   */
  45:../../..\CubeG4\src/stm32g4xx_ll_rtc.c **** /* Default values used for prescaler */
  46:../../..\CubeG4\src/stm32g4xx_ll_rtc.c **** #define RTC_ASYNCH_PRESC_DEFAULT     ((uint32_t) 0x0000007FU)
  47:../../..\CubeG4\src/stm32g4xx_ll_rtc.c **** #define RTC_SYNCH_PRESC_DEFAULT      ((uint32_t) 0x000000FFU)
  48:../../..\CubeG4\src/stm32g4xx_ll_rtc.c **** 
  49:../../..\CubeG4\src/stm32g4xx_ll_rtc.c **** /* Values used for timeout */
  50:../../..\CubeG4\src/stm32g4xx_ll_rtc.c **** #define RTC_INITMODE_TIMEOUT         ((uint32_t) 1000U) /* 1s when tick set to 1ms */
  51:../../..\CubeG4\src/stm32g4xx_ll_rtc.c **** #define RTC_SYNCHRO_TIMEOUT          ((uint32_t) 1000U) /* 1s when tick set to 1ms */
  52:../../..\CubeG4\src/stm32g4xx_ll_rtc.c **** /**
  53:../../..\CubeG4\src/stm32g4xx_ll_rtc.c ****   * @}
  54:../../..\CubeG4\src/stm32g4xx_ll_rtc.c ****   */
  55:../../..\CubeG4\src/stm32g4xx_ll_rtc.c **** 
  56:../../..\CubeG4\src/stm32g4xx_ll_rtc.c **** /* Private macros ------------------------------------------------------------*/
  57:../../..\CubeG4\src/stm32g4xx_ll_rtc.c **** /** @addtogroup RTC_LL_Private_Macros
  58:../../..\CubeG4\src/stm32g4xx_ll_rtc.c ****   * @{
  59:../../..\CubeG4\src/stm32g4xx_ll_rtc.c ****   */
  60:../../..\CubeG4\src/stm32g4xx_ll_rtc.c **** #define IS_LL_RTC_HOURFORMAT(__VALUE__) (((__VALUE__) == LL_RTC_HOURFORMAT_24HOUR) \
  61:../../..\CubeG4\src/stm32g4xx_ll_rtc.c ****                                          || ((__VALUE__) == LL_RTC_HOURFORMAT_AMPM))
  62:../../..\CubeG4\src/stm32g4xx_ll_rtc.c **** 
  63:../../..\CubeG4\src/stm32g4xx_ll_rtc.c **** #define IS_LL_RTC_ASYNCH_PREDIV(__VALUE__)   ((__VALUE__) <= 0x7FU)
  64:../../..\CubeG4\src/stm32g4xx_ll_rtc.c **** 
  65:../../..\CubeG4\src/stm32g4xx_ll_rtc.c **** #define IS_LL_RTC_SYNCH_PREDIV(__VALUE__)    ((__VALUE__) <= 0x7FFFU)
  66:../../..\CubeG4\src/stm32g4xx_ll_rtc.c **** 
  67:../../..\CubeG4\src/stm32g4xx_ll_rtc.c **** #define IS_LL_RTC_FORMAT(__VALUE__) (((__VALUE__) == LL_RTC_FORMAT_BIN) \
  68:../../..\CubeG4\src/stm32g4xx_ll_rtc.c ****                                      || ((__VALUE__) == LL_RTC_FORMAT_BCD))
  69:../../..\CubeG4\src/stm32g4xx_ll_rtc.c **** 
  70:../../..\CubeG4\src/stm32g4xx_ll_rtc.c **** #define IS_LL_RTC_TIME_FORMAT(__VALUE__) (((__VALUE__) == LL_RTC_TIME_FORMAT_AM_OR_24) \
  71:../../..\CubeG4\src/stm32g4xx_ll_rtc.c ****                                           || ((__VALUE__) == LL_RTC_TIME_FORMAT_PM))
  72:../../..\CubeG4\src/stm32g4xx_ll_rtc.c **** 
  73:../../..\CubeG4\src/stm32g4xx_ll_rtc.c **** #define IS_LL_RTC_HOUR12(__HOUR__)            (((__HOUR__) > 0U) && ((__HOUR__) <= 12U))
  74:../../..\CubeG4\src/stm32g4xx_ll_rtc.c **** #define IS_LL_RTC_HOUR24(__HOUR__)            ((__HOUR__) <= 23U)
  75:../../..\CubeG4\src/stm32g4xx_ll_rtc.c **** #define IS_LL_RTC_MINUTES(__MINUTES__)        ((__MINUTES__) <= 59U)
  76:../../..\CubeG4\src/stm32g4xx_ll_rtc.c **** #define IS_LL_RTC_SECONDS(__SECONDS__)        ((__SECONDS__) <= 59U)
  77:../../..\CubeG4\src/stm32g4xx_ll_rtc.c **** 
  78:../../..\CubeG4\src/stm32g4xx_ll_rtc.c **** #define IS_LL_RTC_WEEKDAY(__VALUE__) (((__VALUE__) == LL_RTC_WEEKDAY_MONDAY) \
  79:../../..\CubeG4\src/stm32g4xx_ll_rtc.c ****                                       || ((__VALUE__) == LL_RTC_WEEKDAY_TUESDAY) \
  80:../../..\CubeG4\src/stm32g4xx_ll_rtc.c ****                                       || ((__VALUE__) == LL_RTC_WEEKDAY_WEDNESDAY) \
  81:../../..\CubeG4\src/stm32g4xx_ll_rtc.c ****                                       || ((__VALUE__) == LL_RTC_WEEKDAY_THURSDAY) \
  82:../../..\CubeG4\src/stm32g4xx_ll_rtc.c ****                                       || ((__VALUE__) == LL_RTC_WEEKDAY_FRIDAY) \
  83:../../..\CubeG4\src/stm32g4xx_ll_rtc.c ****                                       || ((__VALUE__) == LL_RTC_WEEKDAY_SATURDAY) \
  84:../../..\CubeG4\src/stm32g4xx_ll_rtc.c ****                                       || ((__VALUE__) == LL_RTC_WEEKDAY_SUNDAY))
  85:../../..\CubeG4\src/stm32g4xx_ll_rtc.c **** 
  86:../../..\CubeG4\src/stm32g4xx_ll_rtc.c **** #define IS_LL_RTC_DAY(__DAY__)    (((__DAY__) >= (uint32_t)1U) && ((__DAY__) <= (uint32_t)31U))
  87:../../..\CubeG4\src/stm32g4xx_ll_rtc.c **** 
  88:../../..\CubeG4\src/stm32g4xx_ll_rtc.c **** #define IS_LL_RTC_MONTH(__MONTH__) (((__MONTH__) >= 1U) && ((__MONTH__) <= 12U))
  89:../../..\CubeG4\src/stm32g4xx_ll_rtc.c **** 
  90:../../..\CubeG4\src/stm32g4xx_ll_rtc.c **** #define IS_LL_RTC_YEAR(__YEAR__) ((__YEAR__) <= 99U)
  91:../../..\CubeG4\src/stm32g4xx_ll_rtc.c **** 
  92:../../..\CubeG4\src/stm32g4xx_ll_rtc.c **** #define IS_LL_RTC_ALMA_MASK(__VALUE__) (((__VALUE__) == LL_RTC_ALMA_MASK_NONE) \
  93:../../..\CubeG4\src/stm32g4xx_ll_rtc.c ****                                         || ((__VALUE__) == LL_RTC_ALMA_MASK_DATEWEEKDAY) \
  94:../../..\CubeG4\src/stm32g4xx_ll_rtc.c ****                                         || ((__VALUE__) == LL_RTC_ALMA_MASK_HOURS) \
  95:../../..\CubeG4\src/stm32g4xx_ll_rtc.c ****                                         || ((__VALUE__) == LL_RTC_ALMA_MASK_MINUTES) \
  96:../../..\CubeG4\src/stm32g4xx_ll_rtc.c ****                                         || ((__VALUE__) == LL_RTC_ALMA_MASK_SECONDS) \
  97:../../..\CubeG4\src/stm32g4xx_ll_rtc.c ****                                         || ((__VALUE__) == LL_RTC_ALMA_MASK_ALL))
  98:../../..\CubeG4\src/stm32g4xx_ll_rtc.c **** 
  99:../../..\CubeG4\src/stm32g4xx_ll_rtc.c **** #define IS_LL_RTC_ALMB_MASK(__VALUE__) (((__VALUE__) == LL_RTC_ALMB_MASK_NONE) \
 100:../../..\CubeG4\src/stm32g4xx_ll_rtc.c ****                                         || ((__VALUE__) == LL_RTC_ALMB_MASK_DATEWEEKDAY) \
 101:../../..\CubeG4\src/stm32g4xx_ll_rtc.c ****                                         || ((__VALUE__) == LL_RTC_ALMB_MASK_HOURS) \
 102:../../..\CubeG4\src/stm32g4xx_ll_rtc.c ****                                         || ((__VALUE__) == LL_RTC_ALMB_MASK_MINUTES) \
 103:../../..\CubeG4\src/stm32g4xx_ll_rtc.c ****                                         || ((__VALUE__) == LL_RTC_ALMB_MASK_SECONDS) \
 104:../../..\CubeG4\src/stm32g4xx_ll_rtc.c ****                                         || ((__VALUE__) == LL_RTC_ALMB_MASK_ALL))
 105:../../..\CubeG4\src/stm32g4xx_ll_rtc.c **** 
 106:../../..\CubeG4\src/stm32g4xx_ll_rtc.c **** 
 107:../../..\CubeG4\src/stm32g4xx_ll_rtc.c **** #define IS_LL_RTC_ALMA_DATE_WEEKDAY_SEL(__SEL__) (((__SEL__) == LL_RTC_ALMA_DATEWEEKDAYSEL_DATE) ||
 108:../../..\CubeG4\src/stm32g4xx_ll_rtc.c ****                                                   ((__SEL__) == LL_RTC_ALMA_DATEWEEKDAYSEL_WEEKDAY)
 109:../../..\CubeG4\src/stm32g4xx_ll_rtc.c **** 
 110:../../..\CubeG4\src/stm32g4xx_ll_rtc.c **** #define IS_LL_RTC_ALMB_DATE_WEEKDAY_SEL(__SEL__) (((__SEL__) == LL_RTC_ALMB_DATEWEEKDAYSEL_DATE) ||
 111:../../..\CubeG4\src/stm32g4xx_ll_rtc.c ****                                                   ((__SEL__) == LL_RTC_ALMB_DATEWEEKDAYSEL_WEEKDAY)
 112:../../..\CubeG4\src/stm32g4xx_ll_rtc.c **** /**
 113:../../..\CubeG4\src/stm32g4xx_ll_rtc.c ****   * @}
 114:../../..\CubeG4\src/stm32g4xx_ll_rtc.c ****   */
 115:../../..\CubeG4\src/stm32g4xx_ll_rtc.c **** /* Private function prototypes -----------------------------------------------*/
 116:../../..\CubeG4\src/stm32g4xx_ll_rtc.c **** /* Exported functions --------------------------------------------------------*/
 117:../../..\CubeG4\src/stm32g4xx_ll_rtc.c **** /** @addtogroup RTC_LL_Exported_Functions
 118:../../..\CubeG4\src/stm32g4xx_ll_rtc.c ****   * @{
 119:../../..\CubeG4\src/stm32g4xx_ll_rtc.c ****   */
 120:../../..\CubeG4\src/stm32g4xx_ll_rtc.c **** 
 121:../../..\CubeG4\src/stm32g4xx_ll_rtc.c **** /** @addtogroup RTC_LL_EF_Init
 122:../../..\CubeG4\src/stm32g4xx_ll_rtc.c ****   * @{
 123:../../..\CubeG4\src/stm32g4xx_ll_rtc.c ****   */
 124:../../..\CubeG4\src/stm32g4xx_ll_rtc.c **** 
 125:../../..\CubeG4\src/stm32g4xx_ll_rtc.c **** /**
 126:../../..\CubeG4\src/stm32g4xx_ll_rtc.c ****   * @brief  De-Initializes the RTC registers to their default reset values.
 127:../../..\CubeG4\src/stm32g4xx_ll_rtc.c ****   * @note   This function does not reset the RTC Clock source and RTC Backup Data
 128:../../..\CubeG4\src/stm32g4xx_ll_rtc.c ****   *         registers.
 129:../../..\CubeG4\src/stm32g4xx_ll_rtc.c ****   * @param  RTCx RTC Instance
 130:../../..\CubeG4\src/stm32g4xx_ll_rtc.c ****   * @retval An ErrorStatus enumeration value:
 131:../../..\CubeG4\src/stm32g4xx_ll_rtc.c ****   *          - SUCCESS: RTC registers are de-initialized
 132:../../..\CubeG4\src/stm32g4xx_ll_rtc.c ****   *          - ERROR: RTC registers are not de-initialized
 133:../../..\CubeG4\src/stm32g4xx_ll_rtc.c ****   */
 134:../../..\CubeG4\src/stm32g4xx_ll_rtc.c **** ErrorStatus LL_RTC_DeInit(RTC_TypeDef *RTCx)
 135:../../..\CubeG4\src/stm32g4xx_ll_rtc.c **** {
 136:../../..\CubeG4\src/stm32g4xx_ll_rtc.c ****   ErrorStatus status = ERROR;
 137:../../..\CubeG4\src/stm32g4xx_ll_rtc.c **** 
 138:../../..\CubeG4\src/stm32g4xx_ll_rtc.c ****   /* Check the parameter */
 139:../../..\CubeG4\src/stm32g4xx_ll_rtc.c ****   assert_param(IS_RTC_ALL_INSTANCE(RTCx));
 140:../../..\CubeG4\src/stm32g4xx_ll_rtc.c ****   assert_param(IS_TAMP_ALL_INSTANCE(TAMP));
 141:../../..\CubeG4\src/stm32g4xx_ll_rtc.c **** 
 142:../../..\CubeG4\src/stm32g4xx_ll_rtc.c ****   /* Disable the write protection for RTC registers */
 143:../../..\CubeG4\src/stm32g4xx_ll_rtc.c ****   LL_RTC_DisableWriteProtection(RTCx);
 144:../../..\CubeG4\src/stm32g4xx_ll_rtc.c **** 
 145:../../..\CubeG4\src/stm32g4xx_ll_rtc.c ****   /* Set Initialization mode */
 146:../../..\CubeG4\src/stm32g4xx_ll_rtc.c ****   if (LL_RTC_EnterInitMode(RTCx) != ERROR)
 147:../../..\CubeG4\src/stm32g4xx_ll_rtc.c ****   {
 148:../../..\CubeG4\src/stm32g4xx_ll_rtc.c ****     /* Reset TR, DR and CR registers */
 149:../../..\CubeG4\src/stm32g4xx_ll_rtc.c ****     WRITE_REG(RTCx->TR,       0x00000000U);
 150:../../..\CubeG4\src/stm32g4xx_ll_rtc.c **** #if defined(RTC_WAKEUP_SUPPORT)
 151:../../..\CubeG4\src/stm32g4xx_ll_rtc.c ****     WRITE_REG(RTCx->WUTR,     RTC_WUTR_WUT);
 152:../../..\CubeG4\src/stm32g4xx_ll_rtc.c **** #endif /* RTC_WAKEUP_SUPPORT */
 153:../../..\CubeG4\src/stm32g4xx_ll_rtc.c ****     WRITE_REG(RTCx->DR, (RTC_DR_WDU_0 | RTC_DR_MU_0 | RTC_DR_DU_0));
 154:../../..\CubeG4\src/stm32g4xx_ll_rtc.c ****     /* Reset All CR bits except CR[2:0] */
 155:../../..\CubeG4\src/stm32g4xx_ll_rtc.c **** #if defined(RTC_WAKEUP_SUPPORT)
 156:../../..\CubeG4\src/stm32g4xx_ll_rtc.c ****     WRITE_REG(RTCx->CR, (READ_REG(RTCx->CR) & RTC_CR_WUCKSEL));
 157:../../..\CubeG4\src/stm32g4xx_ll_rtc.c **** #else
 158:../../..\CubeG4\src/stm32g4xx_ll_rtc.c ****     WRITE_REG(RTCx->CR, 0x00000000U);
 159:../../..\CubeG4\src/stm32g4xx_ll_rtc.c **** #endif /* RTC_WAKEUP_SUPPORT */
 160:../../..\CubeG4\src/stm32g4xx_ll_rtc.c ****     WRITE_REG(RTCx->PRER, (RTC_PRER_PREDIV_A | RTC_SYNCH_PRESC_DEFAULT));
 161:../../..\CubeG4\src/stm32g4xx_ll_rtc.c ****     WRITE_REG(RTCx->ALRMAR,   0x00000000U);
 162:../../..\CubeG4\src/stm32g4xx_ll_rtc.c ****     WRITE_REG(RTCx->ALRMBR,   0x00000000U);
 163:../../..\CubeG4\src/stm32g4xx_ll_rtc.c ****     WRITE_REG(RTCx->SHIFTR,   0x00000000U);
 164:../../..\CubeG4\src/stm32g4xx_ll_rtc.c ****     WRITE_REG(RTCx->CALR,     0x00000000U);
 165:../../..\CubeG4\src/stm32g4xx_ll_rtc.c ****     WRITE_REG(RTCx->ALRMASSR, 0x00000000U);
 166:../../..\CubeG4\src/stm32g4xx_ll_rtc.c ****     WRITE_REG(RTCx->ALRMBSSR, 0x00000000U);
 167:../../..\CubeG4\src/stm32g4xx_ll_rtc.c **** 
 168:../../..\CubeG4\src/stm32g4xx_ll_rtc.c ****     /* Exit Initialization mode */
 169:../../..\CubeG4\src/stm32g4xx_ll_rtc.c ****     LL_RTC_DisableInitMode(RTCx);
 170:../../..\CubeG4\src/stm32g4xx_ll_rtc.c **** 
 171:../../..\CubeG4\src/stm32g4xx_ll_rtc.c ****     /* Wait till the RTC RSF flag is set */
 172:../../..\CubeG4\src/stm32g4xx_ll_rtc.c ****     status = LL_RTC_WaitForSynchro(RTCx);
 173:../../..\CubeG4\src/stm32g4xx_ll_rtc.c ****   }
 174:../../..\CubeG4\src/stm32g4xx_ll_rtc.c **** 
 175:../../..\CubeG4\src/stm32g4xx_ll_rtc.c ****   /* Enable the write protection for RTC registers */
 176:../../..\CubeG4\src/stm32g4xx_ll_rtc.c ****   LL_RTC_EnableWriteProtection(RTCx);
 177:../../..\CubeG4\src/stm32g4xx_ll_rtc.c **** 
 178:../../..\CubeG4\src/stm32g4xx_ll_rtc.c ****   /* DeInitialization of the TAMP */
 179:../../..\CubeG4\src/stm32g4xx_ll_rtc.c ****   /* Reset TAMP CR1 and CR2 registers */
 180:../../..\CubeG4\src/stm32g4xx_ll_rtc.c ****   WRITE_REG(TAMP->CR1,      0xFFFF0000U);
 181:../../..\CubeG4\src/stm32g4xx_ll_rtc.c ****   WRITE_REG(TAMP->CR2,     0x00000000U);
 182:../../..\CubeG4\src/stm32g4xx_ll_rtc.c **** #if defined (RTC_OTHER_SUPPORT)
 183:../../..\CubeG4\src/stm32g4xx_ll_rtc.c ****   WRITE_REG(TAMP->CR3,     0x00000000U);
 184:../../..\CubeG4\src/stm32g4xx_ll_rtc.c ****   WRITE_REG(TAMP->SMCR,     0x00000000U);
 185:../../..\CubeG4\src/stm32g4xx_ll_rtc.c ****   WRITE_REG(TAMP->PRIVCR,   0x00000000U);
 186:../../..\CubeG4\src/stm32g4xx_ll_rtc.c **** #endif /* RTC_OTHER_SUPPORT */
 187:../../..\CubeG4\src/stm32g4xx_ll_rtc.c ****   WRITE_REG(TAMP->FLTCR,    0x00000000U);
 188:../../..\CubeG4\src/stm32g4xx_ll_rtc.c **** #if defined (RTC_ACTIVE_TAMPER_SUPPORT)
 189:../../..\CubeG4\src/stm32g4xx_ll_rtc.c ****   WRITE_REG(TAMP->ATCR1,    0x00000000U);
 190:../../..\CubeG4\src/stm32g4xx_ll_rtc.c ****   WRITE_REG(TAMP->ATCR2,    0x00000000U);
 191:../../..\CubeG4\src/stm32g4xx_ll_rtc.c **** #endif /* RTC_ACTIVE_TAMPER_SUPPORT */
 192:../../..\CubeG4\src/stm32g4xx_ll_rtc.c ****   WRITE_REG(TAMP->IER,      0x00000000U);
 193:../../..\CubeG4\src/stm32g4xx_ll_rtc.c ****   WRITE_REG(TAMP->SCR,      0xFFFFFFFFU);
 194:../../..\CubeG4\src/stm32g4xx_ll_rtc.c **** #if defined (RTC_OPTION_REG_SUPPORT)
 195:../../..\CubeG4\src/stm32g4xx_ll_rtc.c ****   WRITE_REG(TAMP->OR,       0x00000000U);
 196:../../..\CubeG4\src/stm32g4xx_ll_rtc.c **** #endif /* RTC_OPTION_REG_SUPPORT */
 197:../../..\CubeG4\src/stm32g4xx_ll_rtc.c **** 
 198:../../..\CubeG4\src/stm32g4xx_ll_rtc.c ****   return status;
 199:../../..\CubeG4\src/stm32g4xx_ll_rtc.c **** }
 200:../../..\CubeG4\src/stm32g4xx_ll_rtc.c **** 
 201:../../..\CubeG4\src/stm32g4xx_ll_rtc.c **** /**
 202:../../..\CubeG4\src/stm32g4xx_ll_rtc.c ****   * @brief  Initializes the RTC registers according to the specified parameters
 203:../../..\CubeG4\src/stm32g4xx_ll_rtc.c ****   *         in RTC_InitStruct.
 204:../../..\CubeG4\src/stm32g4xx_ll_rtc.c ****   * @param  RTCx RTC Instance
 205:../../..\CubeG4\src/stm32g4xx_ll_rtc.c ****   * @param  RTC_InitStruct pointer to a @ref LL_RTC_InitTypeDef structure that contains
 206:../../..\CubeG4\src/stm32g4xx_ll_rtc.c ****   *         the configuration information for the RTC peripheral.
 207:../../..\CubeG4\src/stm32g4xx_ll_rtc.c ****   * @note   The RTC Prescaler register is write protected and can be written in
 208:../../..\CubeG4\src/stm32g4xx_ll_rtc.c ****   *         initialization mode only.
 209:../../..\CubeG4\src/stm32g4xx_ll_rtc.c ****   * @retval An ErrorStatus enumeration value:
 210:../../..\CubeG4\src/stm32g4xx_ll_rtc.c ****   *          - SUCCESS: RTC registers are initialized
 211:../../..\CubeG4\src/stm32g4xx_ll_rtc.c ****   *          - ERROR: RTC registers are not initialized
 212:../../..\CubeG4\src/stm32g4xx_ll_rtc.c ****   */
 213:../../..\CubeG4\src/stm32g4xx_ll_rtc.c **** ErrorStatus LL_RTC_Init(RTC_TypeDef *RTCx, LL_RTC_InitTypeDef *RTC_InitStruct)
 214:../../..\CubeG4\src/stm32g4xx_ll_rtc.c **** {
 215:../../..\CubeG4\src/stm32g4xx_ll_rtc.c ****   ErrorStatus status = ERROR;
 216:../../..\CubeG4\src/stm32g4xx_ll_rtc.c **** 
 217:../../..\CubeG4\src/stm32g4xx_ll_rtc.c ****   /* Check the parameters */
 218:../../..\CubeG4\src/stm32g4xx_ll_rtc.c ****   assert_param(IS_RTC_ALL_INSTANCE(RTCx));
 219:../../..\CubeG4\src/stm32g4xx_ll_rtc.c ****   assert_param(IS_LL_RTC_HOURFORMAT(RTC_InitStruct->HourFormat));
 220:../../..\CubeG4\src/stm32g4xx_ll_rtc.c ****   assert_param(IS_LL_RTC_ASYNCH_PREDIV(RTC_InitStruct->AsynchPrescaler));
 221:../../..\CubeG4\src/stm32g4xx_ll_rtc.c ****   assert_param(IS_LL_RTC_SYNCH_PREDIV(RTC_InitStruct->SynchPrescaler));
 222:../../..\CubeG4\src/stm32g4xx_ll_rtc.c **** 
 223:../../..\CubeG4\src/stm32g4xx_ll_rtc.c ****   /* Disable the write protection for RTC registers */
 224:../../..\CubeG4\src/stm32g4xx_ll_rtc.c ****   LL_RTC_DisableWriteProtection(RTCx);
 225:../../..\CubeG4\src/stm32g4xx_ll_rtc.c **** 
 226:../../..\CubeG4\src/stm32g4xx_ll_rtc.c ****   /* Set Initialization mode */
 227:../../..\CubeG4\src/stm32g4xx_ll_rtc.c ****   if (LL_RTC_EnterInitMode(RTCx) != ERROR)
 228:../../..\CubeG4\src/stm32g4xx_ll_rtc.c ****   {
 229:../../..\CubeG4\src/stm32g4xx_ll_rtc.c ****     /* Set Hour Format */
 230:../../..\CubeG4\src/stm32g4xx_ll_rtc.c ****     LL_RTC_SetHourFormat(RTCx, RTC_InitStruct->HourFormat);
 231:../../..\CubeG4\src/stm32g4xx_ll_rtc.c **** 
 232:../../..\CubeG4\src/stm32g4xx_ll_rtc.c ****     /* Configure Synchronous prescaler factor */
 233:../../..\CubeG4\src/stm32g4xx_ll_rtc.c ****     LL_RTC_SetSynchPrescaler(RTCx, RTC_InitStruct->SynchPrescaler);
 234:../../..\CubeG4\src/stm32g4xx_ll_rtc.c ****     /* Configure Asynchronous prescaler factor */
 235:../../..\CubeG4\src/stm32g4xx_ll_rtc.c ****     LL_RTC_SetAsynchPrescaler(RTCx, RTC_InitStruct->AsynchPrescaler);
 236:../../..\CubeG4\src/stm32g4xx_ll_rtc.c **** 
 237:../../..\CubeG4\src/stm32g4xx_ll_rtc.c ****     /* Exit Initialization mode */
 238:../../..\CubeG4\src/stm32g4xx_ll_rtc.c ****     LL_RTC_DisableInitMode(RTCx);
 239:../../..\CubeG4\src/stm32g4xx_ll_rtc.c **** 
 240:../../..\CubeG4\src/stm32g4xx_ll_rtc.c ****     status = SUCCESS;
 241:../../..\CubeG4\src/stm32g4xx_ll_rtc.c ****   }
 242:../../..\CubeG4\src/stm32g4xx_ll_rtc.c ****   /* Enable the write protection for RTC registers */
 243:../../..\CubeG4\src/stm32g4xx_ll_rtc.c ****   LL_RTC_EnableWriteProtection(RTCx);
 244:../../..\CubeG4\src/stm32g4xx_ll_rtc.c **** 
 245:../../..\CubeG4\src/stm32g4xx_ll_rtc.c ****   return status;
 246:../../..\CubeG4\src/stm32g4xx_ll_rtc.c **** }
 247:../../..\CubeG4\src/stm32g4xx_ll_rtc.c **** 
 248:../../..\CubeG4\src/stm32g4xx_ll_rtc.c **** /**
 249:../../..\CubeG4\src/stm32g4xx_ll_rtc.c ****   * @brief  Set each @ref LL_RTC_InitTypeDef field to default value.
 250:../../..\CubeG4\src/stm32g4xx_ll_rtc.c ****   * @param  RTC_InitStruct pointer to a @ref LL_RTC_InitTypeDef structure which will be initialized
 251:../../..\CubeG4\src/stm32g4xx_ll_rtc.c ****   * @retval None
 252:../../..\CubeG4\src/stm32g4xx_ll_rtc.c ****   */
 253:../../..\CubeG4\src/stm32g4xx_ll_rtc.c **** void LL_RTC_StructInit(LL_RTC_InitTypeDef *RTC_InitStruct)
 254:../../..\CubeG4\src/stm32g4xx_ll_rtc.c **** {
  30              		.loc 1 254 1 view -0
  31              		.cfi_startproc
  32              		@ args = 0, pretend = 0, frame = 0
  33              		@ frame_needed = 0, uses_anonymous_args = 0
  34              		@ link register save eliminated.
 255:../../..\CubeG4\src/stm32g4xx_ll_rtc.c ****   /* Set RTC_InitStruct fields to default values */
 256:../../..\CubeG4\src/stm32g4xx_ll_rtc.c ****   RTC_InitStruct->HourFormat      = LL_RTC_HOURFORMAT_24HOUR;
  35              		.loc 1 256 3 view .LVU1
 257:../../..\CubeG4\src/stm32g4xx_ll_rtc.c ****   RTC_InitStruct->AsynchPrescaler = RTC_ASYNCH_PRESC_DEFAULT;
  36              		.loc 1 257 35 is_stmt 0 view .LVU2
  37 0000 7F23     		movs	r3, #127
  38 0002 0022     		movs	r2, #0
  39 0004 C0E90023 		strd	r2, r3, [r0]
 258:../../..\CubeG4\src/stm32g4xx_ll_rtc.c ****   RTC_InitStruct->SynchPrescaler  = RTC_SYNCH_PRESC_DEFAULT;
  40              		.loc 1 258 3 is_stmt 1 view .LVU3
  41              		.loc 1 258 35 is_stmt 0 view .LVU4
  42 0008 FF23     		movs	r3, #255
  43 000a 8360     		str	r3, [r0, #8]
 259:../../..\CubeG4\src/stm32g4xx_ll_rtc.c **** }
  44              		.loc 1 259 1 view .LVU5
  45 000c 7047     		bx	lr
  46              		.cfi_endproc
  47              	.LFE396:
  49              		.section	.text.LL_RTC_TIME_StructInit,"ax",%progbits
  50              		.align	1
  51              		.global	LL_RTC_TIME_StructInit
  52              		.syntax unified
  53              		.thumb
  54              		.thumb_func
  55              		.fpu fpv4-sp-d16
  57              	LL_RTC_TIME_StructInit:
  58              	.LVL1:
  59              	.LFB398:
 260:../../..\CubeG4\src/stm32g4xx_ll_rtc.c **** 
 261:../../..\CubeG4\src/stm32g4xx_ll_rtc.c **** /**
 262:../../..\CubeG4\src/stm32g4xx_ll_rtc.c ****   * @brief  Set the RTC current time.
 263:../../..\CubeG4\src/stm32g4xx_ll_rtc.c ****   * @param  RTCx RTC Instance
 264:../../..\CubeG4\src/stm32g4xx_ll_rtc.c ****   * @param  RTC_Format This parameter can be one of the following values:
 265:../../..\CubeG4\src/stm32g4xx_ll_rtc.c ****   *         @arg @ref LL_RTC_FORMAT_BIN
 266:../../..\CubeG4\src/stm32g4xx_ll_rtc.c ****   *         @arg @ref LL_RTC_FORMAT_BCD
 267:../../..\CubeG4\src/stm32g4xx_ll_rtc.c ****   * @param  RTC_TimeStruct pointer to a RTC_TimeTypeDef structure that contains
 268:../../..\CubeG4\src/stm32g4xx_ll_rtc.c ****   *                        the time configuration information for the RTC.
 269:../../..\CubeG4\src/stm32g4xx_ll_rtc.c ****   * @retval An ErrorStatus enumeration value:
 270:../../..\CubeG4\src/stm32g4xx_ll_rtc.c ****   *          - SUCCESS: RTC Time register is configured
 271:../../..\CubeG4\src/stm32g4xx_ll_rtc.c ****   *          - ERROR: RTC Time register is not configured
 272:../../..\CubeG4\src/stm32g4xx_ll_rtc.c ****   */
 273:../../..\CubeG4\src/stm32g4xx_ll_rtc.c **** ErrorStatus LL_RTC_TIME_Init(RTC_TypeDef *RTCx, uint32_t RTC_Format, LL_RTC_TimeTypeDef *RTC_TimeSt
 274:../../..\CubeG4\src/stm32g4xx_ll_rtc.c **** {
 275:../../..\CubeG4\src/stm32g4xx_ll_rtc.c ****   ErrorStatus status = ERROR;
 276:../../..\CubeG4\src/stm32g4xx_ll_rtc.c **** 
 277:../../..\CubeG4\src/stm32g4xx_ll_rtc.c ****   /* Check the parameters */
 278:../../..\CubeG4\src/stm32g4xx_ll_rtc.c ****   assert_param(IS_RTC_ALL_INSTANCE(RTCx));
 279:../../..\CubeG4\src/stm32g4xx_ll_rtc.c ****   assert_param(IS_LL_RTC_FORMAT(RTC_Format));
 280:../../..\CubeG4\src/stm32g4xx_ll_rtc.c **** 
 281:../../..\CubeG4\src/stm32g4xx_ll_rtc.c ****   if (RTC_Format == LL_RTC_FORMAT_BIN)
 282:../../..\CubeG4\src/stm32g4xx_ll_rtc.c ****   {
 283:../../..\CubeG4\src/stm32g4xx_ll_rtc.c ****     if (LL_RTC_GetHourFormat(RTCx) != LL_RTC_HOURFORMAT_24HOUR)
 284:../../..\CubeG4\src/stm32g4xx_ll_rtc.c ****     {
 285:../../..\CubeG4\src/stm32g4xx_ll_rtc.c ****       assert_param(IS_LL_RTC_HOUR12(RTC_TimeStruct->Hours));
 286:../../..\CubeG4\src/stm32g4xx_ll_rtc.c ****       assert_param(IS_LL_RTC_TIME_FORMAT(RTC_TimeStruct->TimeFormat));
 287:../../..\CubeG4\src/stm32g4xx_ll_rtc.c ****     }
 288:../../..\CubeG4\src/stm32g4xx_ll_rtc.c ****     else
 289:../../..\CubeG4\src/stm32g4xx_ll_rtc.c ****     {
 290:../../..\CubeG4\src/stm32g4xx_ll_rtc.c ****       RTC_TimeStruct->TimeFormat = 0x00U;
 291:../../..\CubeG4\src/stm32g4xx_ll_rtc.c ****       assert_param(IS_LL_RTC_HOUR24(RTC_TimeStruct->Hours));
 292:../../..\CubeG4\src/stm32g4xx_ll_rtc.c ****     }
 293:../../..\CubeG4\src/stm32g4xx_ll_rtc.c ****     assert_param(IS_LL_RTC_MINUTES(RTC_TimeStruct->Minutes));
 294:../../..\CubeG4\src/stm32g4xx_ll_rtc.c ****     assert_param(IS_LL_RTC_SECONDS(RTC_TimeStruct->Seconds));
 295:../../..\CubeG4\src/stm32g4xx_ll_rtc.c ****   }
 296:../../..\CubeG4\src/stm32g4xx_ll_rtc.c ****   else
 297:../../..\CubeG4\src/stm32g4xx_ll_rtc.c ****   {
 298:../../..\CubeG4\src/stm32g4xx_ll_rtc.c ****     if (LL_RTC_GetHourFormat(RTCx) != LL_RTC_HOURFORMAT_24HOUR)
 299:../../..\CubeG4\src/stm32g4xx_ll_rtc.c ****     {
 300:../../..\CubeG4\src/stm32g4xx_ll_rtc.c ****       assert_param(IS_LL_RTC_HOUR12(__LL_RTC_CONVERT_BCD2BIN(RTC_TimeStruct->Hours)));
 301:../../..\CubeG4\src/stm32g4xx_ll_rtc.c ****       assert_param(IS_LL_RTC_TIME_FORMAT(RTC_TimeStruct->TimeFormat));
 302:../../..\CubeG4\src/stm32g4xx_ll_rtc.c ****     }
 303:../../..\CubeG4\src/stm32g4xx_ll_rtc.c ****     else
 304:../../..\CubeG4\src/stm32g4xx_ll_rtc.c ****     {
 305:../../..\CubeG4\src/stm32g4xx_ll_rtc.c ****       RTC_TimeStruct->TimeFormat = 0x00U;
 306:../../..\CubeG4\src/stm32g4xx_ll_rtc.c ****       assert_param(IS_LL_RTC_HOUR24(__LL_RTC_CONVERT_BCD2BIN(RTC_TimeStruct->Hours)));
 307:../../..\CubeG4\src/stm32g4xx_ll_rtc.c ****     }
 308:../../..\CubeG4\src/stm32g4xx_ll_rtc.c ****     assert_param(IS_LL_RTC_MINUTES(__LL_RTC_CONVERT_BCD2BIN(RTC_TimeStruct->Minutes)));
 309:../../..\CubeG4\src/stm32g4xx_ll_rtc.c ****     assert_param(IS_LL_RTC_SECONDS(__LL_RTC_CONVERT_BCD2BIN(RTC_TimeStruct->Seconds)));
 310:../../..\CubeG4\src/stm32g4xx_ll_rtc.c ****   }
 311:../../..\CubeG4\src/stm32g4xx_ll_rtc.c **** 
 312:../../..\CubeG4\src/stm32g4xx_ll_rtc.c ****   /* Disable the write protection for RTC registers */
 313:../../..\CubeG4\src/stm32g4xx_ll_rtc.c ****   LL_RTC_DisableWriteProtection(RTCx);
 314:../../..\CubeG4\src/stm32g4xx_ll_rtc.c **** 
 315:../../..\CubeG4\src/stm32g4xx_ll_rtc.c ****   /* Set Initialization mode */
 316:../../..\CubeG4\src/stm32g4xx_ll_rtc.c ****   if (LL_RTC_EnterInitMode(RTCx) != ERROR)
 317:../../..\CubeG4\src/stm32g4xx_ll_rtc.c ****   {
 318:../../..\CubeG4\src/stm32g4xx_ll_rtc.c ****     /* Check the input parameters format */
 319:../../..\CubeG4\src/stm32g4xx_ll_rtc.c ****     if (RTC_Format != LL_RTC_FORMAT_BIN)
 320:../../..\CubeG4\src/stm32g4xx_ll_rtc.c ****     {
 321:../../..\CubeG4\src/stm32g4xx_ll_rtc.c ****       LL_RTC_TIME_Config(RTCx, RTC_TimeStruct->TimeFormat, RTC_TimeStruct->Hours,
 322:../../..\CubeG4\src/stm32g4xx_ll_rtc.c ****                          RTC_TimeStruct->Minutes, RTC_TimeStruct->Seconds);
 323:../../..\CubeG4\src/stm32g4xx_ll_rtc.c ****     }
 324:../../..\CubeG4\src/stm32g4xx_ll_rtc.c ****     else
 325:../../..\CubeG4\src/stm32g4xx_ll_rtc.c ****     {
 326:../../..\CubeG4\src/stm32g4xx_ll_rtc.c ****       LL_RTC_TIME_Config(RTCx, RTC_TimeStruct->TimeFormat, __LL_RTC_CONVERT_BIN2BCD(RTC_TimeStruct-
 327:../../..\CubeG4\src/stm32g4xx_ll_rtc.c ****                          __LL_RTC_CONVERT_BIN2BCD(RTC_TimeStruct->Minutes),
 328:../../..\CubeG4\src/stm32g4xx_ll_rtc.c ****                          __LL_RTC_CONVERT_BIN2BCD(RTC_TimeStruct->Seconds));
 329:../../..\CubeG4\src/stm32g4xx_ll_rtc.c ****     }
 330:../../..\CubeG4\src/stm32g4xx_ll_rtc.c **** 
 331:../../..\CubeG4\src/stm32g4xx_ll_rtc.c ****     /* Exit Initialization mode */
 332:../../..\CubeG4\src/stm32g4xx_ll_rtc.c ****     LL_RTC_DisableInitMode(RTC);
 333:../../..\CubeG4\src/stm32g4xx_ll_rtc.c **** 
 334:../../..\CubeG4\src/stm32g4xx_ll_rtc.c ****     /* If  RTC_CR_BYPSHAD bit = 0, wait for synchro else this check is not needed */
 335:../../..\CubeG4\src/stm32g4xx_ll_rtc.c ****     if (LL_RTC_IsShadowRegBypassEnabled(RTCx) == 0U)
 336:../../..\CubeG4\src/stm32g4xx_ll_rtc.c ****     {
 337:../../..\CubeG4\src/stm32g4xx_ll_rtc.c ****       status = LL_RTC_WaitForSynchro(RTCx);
 338:../../..\CubeG4\src/stm32g4xx_ll_rtc.c ****     }
 339:../../..\CubeG4\src/stm32g4xx_ll_rtc.c ****     else
 340:../../..\CubeG4\src/stm32g4xx_ll_rtc.c ****     {
 341:../../..\CubeG4\src/stm32g4xx_ll_rtc.c ****       status = SUCCESS;
 342:../../..\CubeG4\src/stm32g4xx_ll_rtc.c ****     }
 343:../../..\CubeG4\src/stm32g4xx_ll_rtc.c ****   }
 344:../../..\CubeG4\src/stm32g4xx_ll_rtc.c ****   /* Enable the write protection for RTC registers */
 345:../../..\CubeG4\src/stm32g4xx_ll_rtc.c ****   LL_RTC_EnableWriteProtection(RTCx);
 346:../../..\CubeG4\src/stm32g4xx_ll_rtc.c **** 
 347:../../..\CubeG4\src/stm32g4xx_ll_rtc.c ****   return status;
 348:../../..\CubeG4\src/stm32g4xx_ll_rtc.c **** }
 349:../../..\CubeG4\src/stm32g4xx_ll_rtc.c **** 
 350:../../..\CubeG4\src/stm32g4xx_ll_rtc.c **** /**
 351:../../..\CubeG4\src/stm32g4xx_ll_rtc.c ****   * @brief  Set each @ref LL_RTC_TimeTypeDef field to default value (Time = 00h:00min:00sec).
 352:../../..\CubeG4\src/stm32g4xx_ll_rtc.c ****   * @param  RTC_TimeStruct pointer to a @ref LL_RTC_TimeTypeDef structure which will be initialized
 353:../../..\CubeG4\src/stm32g4xx_ll_rtc.c ****   * @retval None
 354:../../..\CubeG4\src/stm32g4xx_ll_rtc.c ****   */
 355:../../..\CubeG4\src/stm32g4xx_ll_rtc.c **** void LL_RTC_TIME_StructInit(LL_RTC_TimeTypeDef *RTC_TimeStruct)
 356:../../..\CubeG4\src/stm32g4xx_ll_rtc.c **** {
  60              		.loc 1 356 1 is_stmt 1 view -0
  61              		.cfi_startproc
  62              		@ args = 0, pretend = 0, frame = 0
  63              		@ frame_needed = 0, uses_anonymous_args = 0
  64              		@ link register save eliminated.
 357:../../..\CubeG4\src/stm32g4xx_ll_rtc.c ****   /* Time = 00h:00min:00sec */
 358:../../..\CubeG4\src/stm32g4xx_ll_rtc.c ****   RTC_TimeStruct->TimeFormat = LL_RTC_TIME_FORMAT_AM_OR_24;
  65              		.loc 1 358 3 view .LVU7
 359:../../..\CubeG4\src/stm32g4xx_ll_rtc.c ****   RTC_TimeStruct->Hours      = 0U;
  66              		.loc 1 359 3 view .LVU8
 360:../../..\CubeG4\src/stm32g4xx_ll_rtc.c ****   RTC_TimeStruct->Minutes    = 0U;
  67              		.loc 1 360 3 view .LVU9
 361:../../..\CubeG4\src/stm32g4xx_ll_rtc.c ****   RTC_TimeStruct->Seconds    = 0U;
  68              		.loc 1 361 3 view .LVU10
 358:../../..\CubeG4\src/stm32g4xx_ll_rtc.c ****   RTC_TimeStruct->Hours      = 0U;
  69              		.loc 1 358 30 is_stmt 0 view .LVU11
  70 0000 0023     		movs	r3, #0
  71 0002 0360     		str	r3, [r0]
 359:../../..\CubeG4\src/stm32g4xx_ll_rtc.c ****   RTC_TimeStruct->Minutes    = 0U;
  72              		.loc 1 359 30 view .LVU12
  73 0004 8380     		strh	r3, [r0, #4]	@ movhi
  74              		.loc 1 361 30 view .LVU13
  75 0006 8371     		strb	r3, [r0, #6]
 362:../../..\CubeG4\src/stm32g4xx_ll_rtc.c **** }
  76              		.loc 1 362 1 view .LVU14
  77 0008 7047     		bx	lr
  78              		.cfi_endproc
  79              	.LFE398:
  81              		.section	.text.LL_RTC_DATE_StructInit,"ax",%progbits
  82              		.align	1
  83              		.global	LL_RTC_DATE_StructInit
  84              		.syntax unified
  85              		.thumb
  86              		.thumb_func
  87              		.fpu fpv4-sp-d16
  89              	LL_RTC_DATE_StructInit:
  90              	.LVL2:
  91              	.LFB400:
 363:../../..\CubeG4\src/stm32g4xx_ll_rtc.c **** 
 364:../../..\CubeG4\src/stm32g4xx_ll_rtc.c **** /**
 365:../../..\CubeG4\src/stm32g4xx_ll_rtc.c ****   * @brief  Set the RTC current date.
 366:../../..\CubeG4\src/stm32g4xx_ll_rtc.c ****   * @param  RTCx RTC Instance
 367:../../..\CubeG4\src/stm32g4xx_ll_rtc.c ****   * @param  RTC_Format This parameter can be one of the following values:
 368:../../..\CubeG4\src/stm32g4xx_ll_rtc.c ****   *         @arg @ref LL_RTC_FORMAT_BIN
 369:../../..\CubeG4\src/stm32g4xx_ll_rtc.c ****   *         @arg @ref LL_RTC_FORMAT_BCD
 370:../../..\CubeG4\src/stm32g4xx_ll_rtc.c ****   * @param  RTC_DateStruct: pointer to a RTC_DateTypeDef structure that contains
 371:../../..\CubeG4\src/stm32g4xx_ll_rtc.c ****   *                         the date configuration information for the RTC.
 372:../../..\CubeG4\src/stm32g4xx_ll_rtc.c ****   * @retval An ErrorStatus enumeration value:
 373:../../..\CubeG4\src/stm32g4xx_ll_rtc.c ****   *          - SUCCESS: RTC Day register is configured
 374:../../..\CubeG4\src/stm32g4xx_ll_rtc.c ****   *          - ERROR: RTC Day register is not configured
 375:../../..\CubeG4\src/stm32g4xx_ll_rtc.c ****   */
 376:../../..\CubeG4\src/stm32g4xx_ll_rtc.c **** ErrorStatus LL_RTC_DATE_Init(RTC_TypeDef *RTCx, uint32_t RTC_Format, LL_RTC_DateTypeDef *RTC_DateSt
 377:../../..\CubeG4\src/stm32g4xx_ll_rtc.c **** {
 378:../../..\CubeG4\src/stm32g4xx_ll_rtc.c ****   ErrorStatus status = ERROR;
 379:../../..\CubeG4\src/stm32g4xx_ll_rtc.c **** 
 380:../../..\CubeG4\src/stm32g4xx_ll_rtc.c ****   /* Check the parameters */
 381:../../..\CubeG4\src/stm32g4xx_ll_rtc.c ****   assert_param(IS_RTC_ALL_INSTANCE(RTCx));
 382:../../..\CubeG4\src/stm32g4xx_ll_rtc.c ****   assert_param(IS_LL_RTC_FORMAT(RTC_Format));
 383:../../..\CubeG4\src/stm32g4xx_ll_rtc.c **** 
 384:../../..\CubeG4\src/stm32g4xx_ll_rtc.c ****   if ((RTC_Format == LL_RTC_FORMAT_BIN) && ((RTC_DateStruct->Month & 0x10U) == 0x10U))
 385:../../..\CubeG4\src/stm32g4xx_ll_rtc.c ****   {
 386:../../..\CubeG4\src/stm32g4xx_ll_rtc.c ****     RTC_DateStruct->Month = (uint8_t)(RTC_DateStruct->Month & (uint8_t)~(0x10U)) + 0x0AU;
 387:../../..\CubeG4\src/stm32g4xx_ll_rtc.c ****   }
 388:../../..\CubeG4\src/stm32g4xx_ll_rtc.c ****   if (RTC_Format == LL_RTC_FORMAT_BIN)
 389:../../..\CubeG4\src/stm32g4xx_ll_rtc.c ****   {
 390:../../..\CubeG4\src/stm32g4xx_ll_rtc.c ****     assert_param(IS_LL_RTC_YEAR(RTC_DateStruct->Year));
 391:../../..\CubeG4\src/stm32g4xx_ll_rtc.c ****     assert_param(IS_LL_RTC_MONTH(RTC_DateStruct->Month));
 392:../../..\CubeG4\src/stm32g4xx_ll_rtc.c ****     assert_param(IS_LL_RTC_DAY(RTC_DateStruct->Day));
 393:../../..\CubeG4\src/stm32g4xx_ll_rtc.c ****   }
 394:../../..\CubeG4\src/stm32g4xx_ll_rtc.c ****   else
 395:../../..\CubeG4\src/stm32g4xx_ll_rtc.c ****   {
 396:../../..\CubeG4\src/stm32g4xx_ll_rtc.c ****     assert_param(IS_LL_RTC_YEAR(__LL_RTC_CONVERT_BCD2BIN(RTC_DateStruct->Year)));
 397:../../..\CubeG4\src/stm32g4xx_ll_rtc.c ****     assert_param(IS_LL_RTC_MONTH(__LL_RTC_CONVERT_BCD2BIN(RTC_DateStruct->Month)));
 398:../../..\CubeG4\src/stm32g4xx_ll_rtc.c ****     assert_param(IS_LL_RTC_DAY(__LL_RTC_CONVERT_BCD2BIN(RTC_DateStruct->Day)));
 399:../../..\CubeG4\src/stm32g4xx_ll_rtc.c ****   }
 400:../../..\CubeG4\src/stm32g4xx_ll_rtc.c ****   assert_param(IS_LL_RTC_WEEKDAY(RTC_DateStruct->WeekDay));
 401:../../..\CubeG4\src/stm32g4xx_ll_rtc.c **** 
 402:../../..\CubeG4\src/stm32g4xx_ll_rtc.c ****   /* Disable the write protection for RTC registers */
 403:../../..\CubeG4\src/stm32g4xx_ll_rtc.c ****   LL_RTC_DisableWriteProtection(RTCx);
 404:../../..\CubeG4\src/stm32g4xx_ll_rtc.c **** 
 405:../../..\CubeG4\src/stm32g4xx_ll_rtc.c ****   /* Set Initialization mode */
 406:../../..\CubeG4\src/stm32g4xx_ll_rtc.c ****   if (LL_RTC_EnterInitMode(RTCx) != ERROR)
 407:../../..\CubeG4\src/stm32g4xx_ll_rtc.c ****   {
 408:../../..\CubeG4\src/stm32g4xx_ll_rtc.c ****     /* Check the input parameters format */
 409:../../..\CubeG4\src/stm32g4xx_ll_rtc.c ****     if (RTC_Format != LL_RTC_FORMAT_BIN)
 410:../../..\CubeG4\src/stm32g4xx_ll_rtc.c ****     {
 411:../../..\CubeG4\src/stm32g4xx_ll_rtc.c ****       LL_RTC_DATE_Config(RTCx, RTC_DateStruct->WeekDay, RTC_DateStruct->Day, RTC_DateStruct->Month,
 412:../../..\CubeG4\src/stm32g4xx_ll_rtc.c ****     }
 413:../../..\CubeG4\src/stm32g4xx_ll_rtc.c ****     else
 414:../../..\CubeG4\src/stm32g4xx_ll_rtc.c ****     {
 415:../../..\CubeG4\src/stm32g4xx_ll_rtc.c ****       LL_RTC_DATE_Config(RTCx, RTC_DateStruct->WeekDay, __LL_RTC_CONVERT_BIN2BCD(RTC_DateStruct->Da
 416:../../..\CubeG4\src/stm32g4xx_ll_rtc.c ****                          __LL_RTC_CONVERT_BIN2BCD(RTC_DateStruct->Month), __LL_RTC_CONVERT_BIN2BCD(
 417:../../..\CubeG4\src/stm32g4xx_ll_rtc.c ****     }
 418:../../..\CubeG4\src/stm32g4xx_ll_rtc.c **** 
 419:../../..\CubeG4\src/stm32g4xx_ll_rtc.c ****     /* Exit Initialization mode */
 420:../../..\CubeG4\src/stm32g4xx_ll_rtc.c ****     LL_RTC_DisableInitMode(RTC);
 421:../../..\CubeG4\src/stm32g4xx_ll_rtc.c **** 
 422:../../..\CubeG4\src/stm32g4xx_ll_rtc.c ****     /* If  RTC_CR_BYPSHAD bit = 0, wait for synchro else this check is not needed */
 423:../../..\CubeG4\src/stm32g4xx_ll_rtc.c ****     if (LL_RTC_IsShadowRegBypassEnabled(RTCx) == 0U)
 424:../../..\CubeG4\src/stm32g4xx_ll_rtc.c ****     {
 425:../../..\CubeG4\src/stm32g4xx_ll_rtc.c ****       status = LL_RTC_WaitForSynchro(RTCx);
 426:../../..\CubeG4\src/stm32g4xx_ll_rtc.c ****     }
 427:../../..\CubeG4\src/stm32g4xx_ll_rtc.c ****     else
 428:../../..\CubeG4\src/stm32g4xx_ll_rtc.c ****     {
 429:../../..\CubeG4\src/stm32g4xx_ll_rtc.c ****       status = SUCCESS;
 430:../../..\CubeG4\src/stm32g4xx_ll_rtc.c ****     }
 431:../../..\CubeG4\src/stm32g4xx_ll_rtc.c ****   }
 432:../../..\CubeG4\src/stm32g4xx_ll_rtc.c ****   /* Enable the write protection for RTC registers */
 433:../../..\CubeG4\src/stm32g4xx_ll_rtc.c ****   LL_RTC_EnableWriteProtection(RTCx);
 434:../../..\CubeG4\src/stm32g4xx_ll_rtc.c **** 
 435:../../..\CubeG4\src/stm32g4xx_ll_rtc.c ****   return status;
 436:../../..\CubeG4\src/stm32g4xx_ll_rtc.c **** }
 437:../../..\CubeG4\src/stm32g4xx_ll_rtc.c **** 
 438:../../..\CubeG4\src/stm32g4xx_ll_rtc.c **** /**
 439:../../..\CubeG4\src/stm32g4xx_ll_rtc.c ****   * @brief  Set each @ref LL_RTC_DateTypeDef field to default value (date = Monday, January 01 xx00
 440:../../..\CubeG4\src/stm32g4xx_ll_rtc.c ****   * @param  RTC_DateStruct pointer to a @ref LL_RTC_DateTypeDef structure which will be initialized
 441:../../..\CubeG4\src/stm32g4xx_ll_rtc.c ****   * @retval None
 442:../../..\CubeG4\src/stm32g4xx_ll_rtc.c ****   */
 443:../../..\CubeG4\src/stm32g4xx_ll_rtc.c **** void LL_RTC_DATE_StructInit(LL_RTC_DateTypeDef *RTC_DateStruct)
 444:../../..\CubeG4\src/stm32g4xx_ll_rtc.c **** {
  92              		.loc 1 444 1 is_stmt 1 view -0
  93              		.cfi_startproc
  94              		@ args = 0, pretend = 0, frame = 0
  95              		@ frame_needed = 0, uses_anonymous_args = 0
  96              		@ link register save eliminated.
 445:../../..\CubeG4\src/stm32g4xx_ll_rtc.c ****   /* Monday, January 01 xx00 */
 446:../../..\CubeG4\src/stm32g4xx_ll_rtc.c ****   RTC_DateStruct->WeekDay = LL_RTC_WEEKDAY_MONDAY;
  97              		.loc 1 446 3 view .LVU16
  98              		.loc 1 446 27 is_stmt 0 view .LVU17
  99 0000 0123     		movs	r3, #1
 100 0002 0370     		strb	r3, [r0]
 447:../../..\CubeG4\src/stm32g4xx_ll_rtc.c ****   RTC_DateStruct->Day     = 1U;
 101              		.loc 1 447 3 is_stmt 1 view .LVU18
 102              		.loc 1 447 27 is_stmt 0 view .LVU19
 103 0004 8370     		strb	r3, [r0, #2]
 448:../../..\CubeG4\src/stm32g4xx_ll_rtc.c ****   RTC_DateStruct->Month   = LL_RTC_MONTH_JANUARY;
 104              		.loc 1 448 3 is_stmt 1 view .LVU20
 105              		.loc 1 448 27 is_stmt 0 view .LVU21
 106 0006 4370     		strb	r3, [r0, #1]
 449:../../..\CubeG4\src/stm32g4xx_ll_rtc.c ****   RTC_DateStruct->Year    = 0U;
 107              		.loc 1 449 3 is_stmt 1 view .LVU22
 108              		.loc 1 449 27 is_stmt 0 view .LVU23
 109 0008 0023     		movs	r3, #0
 110 000a C370     		strb	r3, [r0, #3]
 450:../../..\CubeG4\src/stm32g4xx_ll_rtc.c **** }
 111              		.loc 1 450 1 view .LVU24
 112 000c 7047     		bx	lr
 113              		.cfi_endproc
 114              	.LFE400:
 116              		.section	.text.LL_RTC_ALMA_Init,"ax",%progbits
 117              		.align	1
 118              		.global	LL_RTC_ALMA_Init
 119              		.syntax unified
 120              		.thumb
 121              		.thumb_func
 122              		.fpu fpv4-sp-d16
 124              	LL_RTC_ALMA_Init:
 125              	.LVL3:
 126              	.LFB401:
 451:../../..\CubeG4\src/stm32g4xx_ll_rtc.c **** 
 452:../../..\CubeG4\src/stm32g4xx_ll_rtc.c **** /**
 453:../../..\CubeG4\src/stm32g4xx_ll_rtc.c ****   * @brief  Set the RTC Alarm A.
 454:../../..\CubeG4\src/stm32g4xx_ll_rtc.c ****   * @note   The Alarm register can only be written when the corresponding Alarm
 455:../../..\CubeG4\src/stm32g4xx_ll_rtc.c ****   *         is disabled (Use @ref LL_RTC_ALMA_Disable function).
 456:../../..\CubeG4\src/stm32g4xx_ll_rtc.c ****   * @param  RTCx RTC Instance
 457:../../..\CubeG4\src/stm32g4xx_ll_rtc.c ****   * @param  RTC_Format This parameter can be one of the following values:
 458:../../..\CubeG4\src/stm32g4xx_ll_rtc.c ****   *         @arg @ref LL_RTC_FORMAT_BIN
 459:../../..\CubeG4\src/stm32g4xx_ll_rtc.c ****   *         @arg @ref LL_RTC_FORMAT_BCD
 460:../../..\CubeG4\src/stm32g4xx_ll_rtc.c ****   * @param  RTC_AlarmStruct pointer to a @ref LL_RTC_AlarmTypeDef structure that
 461:../../..\CubeG4\src/stm32g4xx_ll_rtc.c ****   *                         contains the alarm configuration parameters.
 462:../../..\CubeG4\src/stm32g4xx_ll_rtc.c ****   * @retval An ErrorStatus enumeration value:
 463:../../..\CubeG4\src/stm32g4xx_ll_rtc.c ****   *          - SUCCESS: ALARMA registers are configured
 464:../../..\CubeG4\src/stm32g4xx_ll_rtc.c ****   *          - ERROR: ALARMA registers are not configured
 465:../../..\CubeG4\src/stm32g4xx_ll_rtc.c ****   */
 466:../../..\CubeG4\src/stm32g4xx_ll_rtc.c **** ErrorStatus LL_RTC_ALMA_Init(RTC_TypeDef *RTCx, uint32_t RTC_Format, LL_RTC_AlarmTypeDef *RTC_Alarm
 467:../../..\CubeG4\src/stm32g4xx_ll_rtc.c **** {
 127              		.loc 1 467 1 is_stmt 1 view -0
 128              		.cfi_startproc
 129              		@ args = 0, pretend = 0, frame = 0
 130              		@ frame_needed = 0, uses_anonymous_args = 0
 468:../../..\CubeG4\src/stm32g4xx_ll_rtc.c ****   /* Check the parameters */
 469:../../..\CubeG4\src/stm32g4xx_ll_rtc.c ****   assert_param(IS_RTC_ALL_INSTANCE(RTCx));
 131              		.loc 1 469 3 view .LVU26
 470:../../..\CubeG4\src/stm32g4xx_ll_rtc.c ****   assert_param(IS_LL_RTC_FORMAT(RTC_Format));
 132              		.loc 1 470 3 view .LVU27
 471:../../..\CubeG4\src/stm32g4xx_ll_rtc.c ****   assert_param(IS_LL_RTC_ALMA_MASK(RTC_AlarmStruct->AlarmMask));
 133              		.loc 1 471 3 view .LVU28
 472:../../..\CubeG4\src/stm32g4xx_ll_rtc.c ****   assert_param(IS_LL_RTC_ALMA_DATE_WEEKDAY_SEL(RTC_AlarmStruct->AlarmDateWeekDaySel));
 134              		.loc 1 472 3 view .LVU29
 473:../../..\CubeG4\src/stm32g4xx_ll_rtc.c **** 
 474:../../..\CubeG4\src/stm32g4xx_ll_rtc.c ****   if (RTC_Format == LL_RTC_FORMAT_BIN)
 135              		.loc 1 474 3 view .LVU30
 136              	.LBB90:
 137              	.LBB91:
 138              		.file 2 "../../..\\CubeG4\\include/stm32g4xx_ll_rtc.h"
   1:../../..\CubeG4\include/stm32g4xx_ll_rtc.h **** /**
   2:../../..\CubeG4\include/stm32g4xx_ll_rtc.h ****   ******************************************************************************
   3:../../..\CubeG4\include/stm32g4xx_ll_rtc.h ****   * @file    stm32g4xx_ll_rtc.h
   4:../../..\CubeG4\include/stm32g4xx_ll_rtc.h ****   * @author  MCD Application Team
   5:../../..\CubeG4\include/stm32g4xx_ll_rtc.h ****   * @brief   Header file of RTC LL module.
   6:../../..\CubeG4\include/stm32g4xx_ll_rtc.h ****   ******************************************************************************
   7:../../..\CubeG4\include/stm32g4xx_ll_rtc.h ****   * @attention
   8:../../..\CubeG4\include/stm32g4xx_ll_rtc.h ****   *
   9:../../..\CubeG4\include/stm32g4xx_ll_rtc.h ****   * <h2><center>&copy; COPYRIGHT(c) 2019 STMicroelectronics</center></h2>
  10:../../..\CubeG4\include/stm32g4xx_ll_rtc.h ****   *
  11:../../..\CubeG4\include/stm32g4xx_ll_rtc.h ****   * This software component is licensed by ST under BSD 3-Clause license,
  12:../../..\CubeG4\include/stm32g4xx_ll_rtc.h ****   * the "License"; You may not use this file except in compliance with the
  13:../../..\CubeG4\include/stm32g4xx_ll_rtc.h ****   * License. You may obtain a copy of the License at:
  14:../../..\CubeG4\include/stm32g4xx_ll_rtc.h ****   *                        opensource.org/licenses/BSD-3-Clause
  15:../../..\CubeG4\include/stm32g4xx_ll_rtc.h ****   *
  16:../../..\CubeG4\include/stm32g4xx_ll_rtc.h ****   ******************************************************************************
  17:../../..\CubeG4\include/stm32g4xx_ll_rtc.h ****   */
  18:../../..\CubeG4\include/stm32g4xx_ll_rtc.h **** 
  19:../../..\CubeG4\include/stm32g4xx_ll_rtc.h **** /* Define to prevent recursive inclusion -------------------------------------*/
  20:../../..\CubeG4\include/stm32g4xx_ll_rtc.h **** #ifndef STM32G4xx_LL_RTC_H
  21:../../..\CubeG4\include/stm32g4xx_ll_rtc.h **** #define STM32G4xx_LL_RTC_H
  22:../../..\CubeG4\include/stm32g4xx_ll_rtc.h **** 
  23:../../..\CubeG4\include/stm32g4xx_ll_rtc.h **** #ifdef __cplusplus
  24:../../..\CubeG4\include/stm32g4xx_ll_rtc.h **** extern "C" {
  25:../../..\CubeG4\include/stm32g4xx_ll_rtc.h **** #endif
  26:../../..\CubeG4\include/stm32g4xx_ll_rtc.h **** 
  27:../../..\CubeG4\include/stm32g4xx_ll_rtc.h **** /* Includes ------------------------------------------------------------------*/
  28:../../..\CubeG4\include/stm32g4xx_ll_rtc.h **** #include "stm32g4xx.h"
  29:../../..\CubeG4\include/stm32g4xx_ll_rtc.h **** 
  30:../../..\CubeG4\include/stm32g4xx_ll_rtc.h **** /** @addtogroup STM32G4xx_LL_Driver
  31:../../..\CubeG4\include/stm32g4xx_ll_rtc.h ****   * @{
  32:../../..\CubeG4\include/stm32g4xx_ll_rtc.h ****   */
  33:../../..\CubeG4\include/stm32g4xx_ll_rtc.h **** 
  34:../../..\CubeG4\include/stm32g4xx_ll_rtc.h **** #if defined(RTC)
  35:../../..\CubeG4\include/stm32g4xx_ll_rtc.h **** 
  36:../../..\CubeG4\include/stm32g4xx_ll_rtc.h **** /** @defgroup RTC_LL RTC
  37:../../..\CubeG4\include/stm32g4xx_ll_rtc.h ****   * @{
  38:../../..\CubeG4\include/stm32g4xx_ll_rtc.h ****   */
  39:../../..\CubeG4\include/stm32g4xx_ll_rtc.h **** 
  40:../../..\CubeG4\include/stm32g4xx_ll_rtc.h **** /* Private types -------------------------------------------------------------*/
  41:../../..\CubeG4\include/stm32g4xx_ll_rtc.h **** /* Private variables ---------------------------------------------------------*/
  42:../../..\CubeG4\include/stm32g4xx_ll_rtc.h **** /* Private constants ---------------------------------------------------------*/
  43:../../..\CubeG4\include/stm32g4xx_ll_rtc.h **** /** @defgroup RTC_LL_Private_Constants RTC Private Constants
  44:../../..\CubeG4\include/stm32g4xx_ll_rtc.h ****   * @{
  45:../../..\CubeG4\include/stm32g4xx_ll_rtc.h ****   */
  46:../../..\CubeG4\include/stm32g4xx_ll_rtc.h **** /* Masks Definition */
  47:../../..\CubeG4\include/stm32g4xx_ll_rtc.h **** #define RTC_LL_INIT_MASK              0xFFFFFFFFU
  48:../../..\CubeG4\include/stm32g4xx_ll_rtc.h **** #define RTC_LL_RSF_MASK               0xFFFFFF5FU
  49:../../..\CubeG4\include/stm32g4xx_ll_rtc.h **** 
  50:../../..\CubeG4\include/stm32g4xx_ll_rtc.h **** /* Write protection defines */
  51:../../..\CubeG4\include/stm32g4xx_ll_rtc.h **** #define RTC_WRITE_PROTECTION_DISABLE  (uint8_t)0xFF
  52:../../..\CubeG4\include/stm32g4xx_ll_rtc.h **** #define RTC_WRITE_PROTECTION_ENABLE_1 (uint8_t)0xCA
  53:../../..\CubeG4\include/stm32g4xx_ll_rtc.h **** #define RTC_WRITE_PROTECTION_ENABLE_2 (uint8_t)0x53
  54:../../..\CubeG4\include/stm32g4xx_ll_rtc.h **** 
  55:../../..\CubeG4\include/stm32g4xx_ll_rtc.h **** /* Defines used to combine date & time */
  56:../../..\CubeG4\include/stm32g4xx_ll_rtc.h **** #define RTC_OFFSET_WEEKDAY            24U
  57:../../..\CubeG4\include/stm32g4xx_ll_rtc.h **** #define RTC_OFFSET_DAY                16U
  58:../../..\CubeG4\include/stm32g4xx_ll_rtc.h **** #define RTC_OFFSET_MONTH              8U
  59:../../..\CubeG4\include/stm32g4xx_ll_rtc.h **** #define RTC_OFFSET_HOUR               16U
  60:../../..\CubeG4\include/stm32g4xx_ll_rtc.h **** #define RTC_OFFSET_MINUTE             8U
  61:../../..\CubeG4\include/stm32g4xx_ll_rtc.h **** 
  62:../../..\CubeG4\include/stm32g4xx_ll_rtc.h **** /**
  63:../../..\CubeG4\include/stm32g4xx_ll_rtc.h ****   * @}
  64:../../..\CubeG4\include/stm32g4xx_ll_rtc.h ****   */
  65:../../..\CubeG4\include/stm32g4xx_ll_rtc.h **** 
  66:../../..\CubeG4\include/stm32g4xx_ll_rtc.h **** /* Private macros ------------------------------------------------------------*/
  67:../../..\CubeG4\include/stm32g4xx_ll_rtc.h **** #if defined(USE_FULL_LL_DRIVER)
  68:../../..\CubeG4\include/stm32g4xx_ll_rtc.h **** /** @defgroup RTC_LL_Private_Macros RTC Private Macros
  69:../../..\CubeG4\include/stm32g4xx_ll_rtc.h ****   * @{
  70:../../..\CubeG4\include/stm32g4xx_ll_rtc.h ****   */
  71:../../..\CubeG4\include/stm32g4xx_ll_rtc.h **** /**
  72:../../..\CubeG4\include/stm32g4xx_ll_rtc.h ****   * @}
  73:../../..\CubeG4\include/stm32g4xx_ll_rtc.h ****   */
  74:../../..\CubeG4\include/stm32g4xx_ll_rtc.h **** #endif /*USE_FULL_LL_DRIVER*/
  75:../../..\CubeG4\include/stm32g4xx_ll_rtc.h **** 
  76:../../..\CubeG4\include/stm32g4xx_ll_rtc.h **** #if !defined (UNUSED)
  77:../../..\CubeG4\include/stm32g4xx_ll_rtc.h **** #define UNUSED(x) ((void)(x))
  78:../../..\CubeG4\include/stm32g4xx_ll_rtc.h **** #endif
  79:../../..\CubeG4\include/stm32g4xx_ll_rtc.h **** 
  80:../../..\CubeG4\include/stm32g4xx_ll_rtc.h **** /* Exported types ------------------------------------------------------------*/
  81:../../..\CubeG4\include/stm32g4xx_ll_rtc.h **** #if defined(USE_FULL_LL_DRIVER)
  82:../../..\CubeG4\include/stm32g4xx_ll_rtc.h **** /** @defgroup RTC_LL_ES_INIT RTC Exported Init structure
  83:../../..\CubeG4\include/stm32g4xx_ll_rtc.h ****   * @{
  84:../../..\CubeG4\include/stm32g4xx_ll_rtc.h ****   */
  85:../../..\CubeG4\include/stm32g4xx_ll_rtc.h **** 
  86:../../..\CubeG4\include/stm32g4xx_ll_rtc.h **** /**
  87:../../..\CubeG4\include/stm32g4xx_ll_rtc.h ****   * @brief  RTC Init structures definition
  88:../../..\CubeG4\include/stm32g4xx_ll_rtc.h ****   */
  89:../../..\CubeG4\include/stm32g4xx_ll_rtc.h **** typedef struct
  90:../../..\CubeG4\include/stm32g4xx_ll_rtc.h **** {
  91:../../..\CubeG4\include/stm32g4xx_ll_rtc.h ****   uint32_t HourFormat;   /*!< Specifies the RTC Hours Format.
  92:../../..\CubeG4\include/stm32g4xx_ll_rtc.h ****                               This parameter can be a value of @ref RTC_LL_EC_HOURFORMAT
  93:../../..\CubeG4\include/stm32g4xx_ll_rtc.h **** 
  94:../../..\CubeG4\include/stm32g4xx_ll_rtc.h ****                               This feature can be modified afterwards using unitary function
  95:../../..\CubeG4\include/stm32g4xx_ll_rtc.h ****                               @ref LL_RTC_SetHourFormat(). */
  96:../../..\CubeG4\include/stm32g4xx_ll_rtc.h **** 
  97:../../..\CubeG4\include/stm32g4xx_ll_rtc.h ****   uint32_t AsynchPrescaler; /*!< Specifies the RTC Asynchronous Predivider value.
  98:../../..\CubeG4\include/stm32g4xx_ll_rtc.h ****                               This parameter must be a number between Min_Data = 0x00 and Max_Data 
  99:../../..\CubeG4\include/stm32g4xx_ll_rtc.h **** 
 100:../../..\CubeG4\include/stm32g4xx_ll_rtc.h ****                               This feature can be modified afterwards using unitary function
 101:../../..\CubeG4\include/stm32g4xx_ll_rtc.h ****                               @ref LL_RTC_SetAsynchPrescaler(). */
 102:../../..\CubeG4\include/stm32g4xx_ll_rtc.h **** 
 103:../../..\CubeG4\include/stm32g4xx_ll_rtc.h ****   uint32_t SynchPrescaler;  /*!< Specifies the RTC Synchronous Predivider value.
 104:../../..\CubeG4\include/stm32g4xx_ll_rtc.h ****                               This parameter must be a number between Min_Data = 0x00 and Max_Data 
 105:../../..\CubeG4\include/stm32g4xx_ll_rtc.h **** 
 106:../../..\CubeG4\include/stm32g4xx_ll_rtc.h ****                               This feature can be modified afterwards using unitary function
 107:../../..\CubeG4\include/stm32g4xx_ll_rtc.h ****                               @ref LL_RTC_SetSynchPrescaler(). */
 108:../../..\CubeG4\include/stm32g4xx_ll_rtc.h **** } LL_RTC_InitTypeDef;
 109:../../..\CubeG4\include/stm32g4xx_ll_rtc.h **** 
 110:../../..\CubeG4\include/stm32g4xx_ll_rtc.h **** /**
 111:../../..\CubeG4\include/stm32g4xx_ll_rtc.h ****   * @brief  RTC Time structure definition
 112:../../..\CubeG4\include/stm32g4xx_ll_rtc.h ****   */
 113:../../..\CubeG4\include/stm32g4xx_ll_rtc.h **** typedef struct
 114:../../..\CubeG4\include/stm32g4xx_ll_rtc.h **** {
 115:../../..\CubeG4\include/stm32g4xx_ll_rtc.h ****   uint32_t TimeFormat; /*!< Specifies the RTC AM/PM Time.
 116:../../..\CubeG4\include/stm32g4xx_ll_rtc.h ****                             This parameter can be a value of @ref RTC_LL_EC_TIME_FORMAT
 117:../../..\CubeG4\include/stm32g4xx_ll_rtc.h **** 
 118:../../..\CubeG4\include/stm32g4xx_ll_rtc.h ****                             This feature can be modified afterwards using unitary function @ref LL_
 119:../../..\CubeG4\include/stm32g4xx_ll_rtc.h **** 
 120:../../..\CubeG4\include/stm32g4xx_ll_rtc.h ****   uint8_t Hours;       /*!< Specifies the RTC Time Hours.
 121:../../..\CubeG4\include/stm32g4xx_ll_rtc.h ****                             This parameter must be a number between Min_Data = 0 and Max_Data = 12 
 122:../../..\CubeG4\include/stm32g4xx_ll_rtc.h ****                             This parameter must be a number between Min_Data = 0 and Max_Data = 23 
 123:../../..\CubeG4\include/stm32g4xx_ll_rtc.h **** 
 124:../../..\CubeG4\include/stm32g4xx_ll_rtc.h ****                             This feature can be modified afterwards using unitary function @ref LL_
 125:../../..\CubeG4\include/stm32g4xx_ll_rtc.h **** 
 126:../../..\CubeG4\include/stm32g4xx_ll_rtc.h ****   uint8_t Minutes;     /*!< Specifies the RTC Time Minutes.
 127:../../..\CubeG4\include/stm32g4xx_ll_rtc.h ****                             This parameter must be a number between Min_Data = 0 and Max_Data = 59
 128:../../..\CubeG4\include/stm32g4xx_ll_rtc.h **** 
 129:../../..\CubeG4\include/stm32g4xx_ll_rtc.h ****                             This feature can be modified afterwards using unitary function @ref LL_
 130:../../..\CubeG4\include/stm32g4xx_ll_rtc.h **** 
 131:../../..\CubeG4\include/stm32g4xx_ll_rtc.h ****   uint8_t Seconds;     /*!< Specifies the RTC Time Seconds.
 132:../../..\CubeG4\include/stm32g4xx_ll_rtc.h ****                             This parameter must be a number between Min_Data = 0 and Max_Data = 59
 133:../../..\CubeG4\include/stm32g4xx_ll_rtc.h **** 
 134:../../..\CubeG4\include/stm32g4xx_ll_rtc.h ****                             This feature can be modified afterwards using unitary function @ref LL_
 135:../../..\CubeG4\include/stm32g4xx_ll_rtc.h **** } LL_RTC_TimeTypeDef;
 136:../../..\CubeG4\include/stm32g4xx_ll_rtc.h **** 
 137:../../..\CubeG4\include/stm32g4xx_ll_rtc.h **** /**
 138:../../..\CubeG4\include/stm32g4xx_ll_rtc.h ****   * @brief  RTC Date structure definition
 139:../../..\CubeG4\include/stm32g4xx_ll_rtc.h ****   */
 140:../../..\CubeG4\include/stm32g4xx_ll_rtc.h **** typedef struct
 141:../../..\CubeG4\include/stm32g4xx_ll_rtc.h **** {
 142:../../..\CubeG4\include/stm32g4xx_ll_rtc.h ****   uint8_t WeekDay;  /*!< Specifies the RTC Date WeekDay.
 143:../../..\CubeG4\include/stm32g4xx_ll_rtc.h ****                          This parameter can be a value of @ref RTC_LL_EC_WEEKDAY
 144:../../..\CubeG4\include/stm32g4xx_ll_rtc.h **** 
 145:../../..\CubeG4\include/stm32g4xx_ll_rtc.h ****                          This feature can be modified afterwards using unitary function @ref LL_RTC
 146:../../..\CubeG4\include/stm32g4xx_ll_rtc.h **** 
 147:../../..\CubeG4\include/stm32g4xx_ll_rtc.h ****   uint8_t Month;    /*!< Specifies the RTC Date Month.
 148:../../..\CubeG4\include/stm32g4xx_ll_rtc.h ****                          This parameter can be a value of @ref RTC_LL_EC_MONTH
 149:../../..\CubeG4\include/stm32g4xx_ll_rtc.h **** 
 150:../../..\CubeG4\include/stm32g4xx_ll_rtc.h ****                          This feature can be modified afterwards using unitary function @ref LL_RTC
 151:../../..\CubeG4\include/stm32g4xx_ll_rtc.h **** 
 152:../../..\CubeG4\include/stm32g4xx_ll_rtc.h ****   uint8_t Day;      /*!< Specifies the RTC Date Day.
 153:../../..\CubeG4\include/stm32g4xx_ll_rtc.h ****                          This parameter must be a number between Min_Data = 1 and Max_Data = 31
 154:../../..\CubeG4\include/stm32g4xx_ll_rtc.h **** 
 155:../../..\CubeG4\include/stm32g4xx_ll_rtc.h ****                          This feature can be modified afterwards using unitary function @ref LL_RTC
 156:../../..\CubeG4\include/stm32g4xx_ll_rtc.h **** 
 157:../../..\CubeG4\include/stm32g4xx_ll_rtc.h ****   uint8_t Year;     /*!< Specifies the RTC Date Year.
 158:../../..\CubeG4\include/stm32g4xx_ll_rtc.h ****                          This parameter must be a number between Min_Data = 0 and Max_Data = 99
 159:../../..\CubeG4\include/stm32g4xx_ll_rtc.h **** 
 160:../../..\CubeG4\include/stm32g4xx_ll_rtc.h ****                          This feature can be modified afterwards using unitary function @ref LL_RTC
 161:../../..\CubeG4\include/stm32g4xx_ll_rtc.h **** } LL_RTC_DateTypeDef;
 162:../../..\CubeG4\include/stm32g4xx_ll_rtc.h **** 
 163:../../..\CubeG4\include/stm32g4xx_ll_rtc.h **** /**
 164:../../..\CubeG4\include/stm32g4xx_ll_rtc.h ****   * @brief  RTC Alarm structure definition
 165:../../..\CubeG4\include/stm32g4xx_ll_rtc.h ****   */
 166:../../..\CubeG4\include/stm32g4xx_ll_rtc.h **** typedef struct
 167:../../..\CubeG4\include/stm32g4xx_ll_rtc.h **** {
 168:../../..\CubeG4\include/stm32g4xx_ll_rtc.h ****   LL_RTC_TimeTypeDef AlarmTime;  /*!< Specifies the RTC Alarm Time members. */
 169:../../..\CubeG4\include/stm32g4xx_ll_rtc.h **** 
 170:../../..\CubeG4\include/stm32g4xx_ll_rtc.h ****   uint32_t AlarmMask;            /*!< Specifies the RTC Alarm Masks.
 171:../../..\CubeG4\include/stm32g4xx_ll_rtc.h ****                                       This parameter can be a value of @ref RTC_LL_EC_ALMA_MASK for
 172:../../..\CubeG4\include/stm32g4xx_ll_rtc.h **** 
 173:../../..\CubeG4\include/stm32g4xx_ll_rtc.h ****                                       This feature can be modified afterwards using unitary functio
 174:../../..\CubeG4\include/stm32g4xx_ll_rtc.h ****                                       or @ref LL_RTC_ALMB_SetMask() for ALARM B
 175:../../..\CubeG4\include/stm32g4xx_ll_rtc.h ****                                  */
 176:../../..\CubeG4\include/stm32g4xx_ll_rtc.h **** 
 177:../../..\CubeG4\include/stm32g4xx_ll_rtc.h ****   uint32_t AlarmDateWeekDaySel;  /*!< Specifies the RTC Alarm is on day or WeekDay.
 178:../../..\CubeG4\include/stm32g4xx_ll_rtc.h ****                                       This parameter can be a value of @ref RTC_LL_EC_ALMA_WEEKDAY_
 179:../../..\CubeG4\include/stm32g4xx_ll_rtc.h **** 
 180:../../..\CubeG4\include/stm32g4xx_ll_rtc.h ****                                       This feature can be modified afterwards using unitary functio
 181:../../..\CubeG4\include/stm32g4xx_ll_rtc.h ****                                       for ALARM A or @ref LL_RTC_ALMB_EnableWeekday() or @ref LL_RT
 182:../../..\CubeG4\include/stm32g4xx_ll_rtc.h ****                                  */
 183:../../..\CubeG4\include/stm32g4xx_ll_rtc.h **** 
 184:../../..\CubeG4\include/stm32g4xx_ll_rtc.h ****   uint8_t AlarmDateWeekDay;      /*!< Specifies the RTC Alarm Day/WeekDay.
 185:../../..\CubeG4\include/stm32g4xx_ll_rtc.h ****                                       If AlarmDateWeekDaySel set to day, this parameter  must be a 
 186:../../..\CubeG4\include/stm32g4xx_ll_rtc.h **** 
 187:../../..\CubeG4\include/stm32g4xx_ll_rtc.h ****                                       This feature can be modified afterwards using unitary functio
 188:../../..\CubeG4\include/stm32g4xx_ll_rtc.h ****                                       for ALARM A or @ref LL_RTC_ALMB_SetDay() for ALARM B.
 189:../../..\CubeG4\include/stm32g4xx_ll_rtc.h **** 
 190:../../..\CubeG4\include/stm32g4xx_ll_rtc.h ****                                       If AlarmDateWeekDaySel set to Weekday, this parameter can be 
 191:../../..\CubeG4\include/stm32g4xx_ll_rtc.h **** 
 192:../../..\CubeG4\include/stm32g4xx_ll_rtc.h ****                                       This feature can be modified afterwards using unitary functio
 193:../../..\CubeG4\include/stm32g4xx_ll_rtc.h ****                                       for ALARM A or @ref LL_RTC_ALMB_SetWeekDay() for ALARM B.
 194:../../..\CubeG4\include/stm32g4xx_ll_rtc.h ****                                  */
 195:../../..\CubeG4\include/stm32g4xx_ll_rtc.h **** } LL_RTC_AlarmTypeDef;
 196:../../..\CubeG4\include/stm32g4xx_ll_rtc.h **** 
 197:../../..\CubeG4\include/stm32g4xx_ll_rtc.h **** /**
 198:../../..\CubeG4\include/stm32g4xx_ll_rtc.h ****   * @}
 199:../../..\CubeG4\include/stm32g4xx_ll_rtc.h ****   */
 200:../../..\CubeG4\include/stm32g4xx_ll_rtc.h **** #endif /* USE_FULL_LL_DRIVER */
 201:../../..\CubeG4\include/stm32g4xx_ll_rtc.h **** 
 202:../../..\CubeG4\include/stm32g4xx_ll_rtc.h **** /* Exported constants --------------------------------------------------------*/
 203:../../..\CubeG4\include/stm32g4xx_ll_rtc.h **** /** @defgroup RTC_LL_Exported_Constants RTC Exported Constants
 204:../../..\CubeG4\include/stm32g4xx_ll_rtc.h ****   * @{
 205:../../..\CubeG4\include/stm32g4xx_ll_rtc.h ****   */
 206:../../..\CubeG4\include/stm32g4xx_ll_rtc.h **** 
 207:../../..\CubeG4\include/stm32g4xx_ll_rtc.h **** #if defined(USE_FULL_LL_DRIVER)
 208:../../..\CubeG4\include/stm32g4xx_ll_rtc.h **** /** @defgroup RTC_LL_EC_FORMAT FORMAT
 209:../../..\CubeG4\include/stm32g4xx_ll_rtc.h ****   * @{
 210:../../..\CubeG4\include/stm32g4xx_ll_rtc.h ****   */
 211:../../..\CubeG4\include/stm32g4xx_ll_rtc.h **** #define LL_RTC_FORMAT_BIN                  0x00000000U /*!< Binary data format */
 212:../../..\CubeG4\include/stm32g4xx_ll_rtc.h **** #define LL_RTC_FORMAT_BCD                  0x00000001U /*!< BCD data format */
 213:../../..\CubeG4\include/stm32g4xx_ll_rtc.h **** /**
 214:../../..\CubeG4\include/stm32g4xx_ll_rtc.h ****   * @}
 215:../../..\CubeG4\include/stm32g4xx_ll_rtc.h ****   */
 216:../../..\CubeG4\include/stm32g4xx_ll_rtc.h **** 
 217:../../..\CubeG4\include/stm32g4xx_ll_rtc.h **** /** @defgroup RTC_LL_EC_ALMA_WEEKDAY_SELECTION RTC Alarm A Date WeekDay
 218:../../..\CubeG4\include/stm32g4xx_ll_rtc.h ****   * @{
 219:../../..\CubeG4\include/stm32g4xx_ll_rtc.h ****   */
 220:../../..\CubeG4\include/stm32g4xx_ll_rtc.h **** #define LL_RTC_ALMA_DATEWEEKDAYSEL_DATE    0x00000000U             /*!< Alarm A Date is selected */
 221:../../..\CubeG4\include/stm32g4xx_ll_rtc.h **** #define LL_RTC_ALMA_DATEWEEKDAYSEL_WEEKDAY RTC_ALRMAR_WDSEL        /*!< Alarm A WeekDay is selected
 222:../../..\CubeG4\include/stm32g4xx_ll_rtc.h **** /**
 223:../../..\CubeG4\include/stm32g4xx_ll_rtc.h ****   * @}
 224:../../..\CubeG4\include/stm32g4xx_ll_rtc.h ****   */
 225:../../..\CubeG4\include/stm32g4xx_ll_rtc.h **** 
 226:../../..\CubeG4\include/stm32g4xx_ll_rtc.h **** /** @defgroup RTC_LL_EC_ALMB_WEEKDAY_SELECTION RTC Alarm B Date WeekDay
 227:../../..\CubeG4\include/stm32g4xx_ll_rtc.h ****   * @{
 228:../../..\CubeG4\include/stm32g4xx_ll_rtc.h ****   */
 229:../../..\CubeG4\include/stm32g4xx_ll_rtc.h **** #define LL_RTC_ALMB_DATEWEEKDAYSEL_DATE    0x00000000U             /*!< Alarm B Date is selected */
 230:../../..\CubeG4\include/stm32g4xx_ll_rtc.h **** #define LL_RTC_ALMB_DATEWEEKDAYSEL_WEEKDAY RTC_ALRMBR_WDSEL        /*!< Alarm B WeekDay is selected
 231:../../..\CubeG4\include/stm32g4xx_ll_rtc.h **** /**
 232:../../..\CubeG4\include/stm32g4xx_ll_rtc.h ****   * @}
 233:../../..\CubeG4\include/stm32g4xx_ll_rtc.h ****   */
 234:../../..\CubeG4\include/stm32g4xx_ll_rtc.h **** 
 235:../../..\CubeG4\include/stm32g4xx_ll_rtc.h **** #endif /* USE_FULL_LL_DRIVER */
 236:../../..\CubeG4\include/stm32g4xx_ll_rtc.h **** 
 237:../../..\CubeG4\include/stm32g4xx_ll_rtc.h **** /** @defgroup RTC_LL_EC_GET_FLAG Get Flags Defines
 238:../../..\CubeG4\include/stm32g4xx_ll_rtc.h ****   * @brief    Flags defines which can be used with LL_RTC_ReadReg function
 239:../../..\CubeG4\include/stm32g4xx_ll_rtc.h ****   * @{
 240:../../..\CubeG4\include/stm32g4xx_ll_rtc.h ****   */
 241:../../..\CubeG4\include/stm32g4xx_ll_rtc.h **** #define LL_RTC_SCR_ITSF                    RTC_SCR_CITSF
 242:../../..\CubeG4\include/stm32g4xx_ll_rtc.h **** #define LL_RTC_SCR_TSOVF                   RTC_SCR_CTSOVF
 243:../../..\CubeG4\include/stm32g4xx_ll_rtc.h **** #define LL_RTC_SCR_TSF                     RTC_SCR_CTSF
 244:../../..\CubeG4\include/stm32g4xx_ll_rtc.h **** #define LL_RTC_SCR_WUTF                    RTC_SCR_CWUTF
 245:../../..\CubeG4\include/stm32g4xx_ll_rtc.h **** #define LL_RTC_SCR_ALRBF                   RTC_SCR_CALRBF
 246:../../..\CubeG4\include/stm32g4xx_ll_rtc.h **** #define LL_RTC_CSR_ALRAF                   RTC_SCR_CALRAF
 247:../../..\CubeG4\include/stm32g4xx_ll_rtc.h **** 
 248:../../..\CubeG4\include/stm32g4xx_ll_rtc.h **** #define LL_RTC_ICSR_RECALPF                RTC_ICSR_RECALPF
 249:../../..\CubeG4\include/stm32g4xx_ll_rtc.h **** #define LL_RTC_ICSR_INITF                  RTC_ICSR_INITF
 250:../../..\CubeG4\include/stm32g4xx_ll_rtc.h **** #define LL_RTC_ICSR_RSF                    RTC_ICSR_RSF
 251:../../..\CubeG4\include/stm32g4xx_ll_rtc.h **** #define LL_RTC_ICSR_INITS                  RTC_ICSR_INITS
 252:../../..\CubeG4\include/stm32g4xx_ll_rtc.h **** #define LL_RTC_ICSR_SHPF                   RTC_ICSR_SHPF
 253:../../..\CubeG4\include/stm32g4xx_ll_rtc.h **** #define LL_RTC_ICSR_WUTWF                  RTC_ICSR_WUTWF
 254:../../..\CubeG4\include/stm32g4xx_ll_rtc.h **** #define LL_RTC_ICSR_ALRBWF                 RTC_ICSR_ALRBWF
 255:../../..\CubeG4\include/stm32g4xx_ll_rtc.h **** #define LL_RTC_ICSR_ALRAWF                 RTC_ICSR_ALRAWF
 256:../../..\CubeG4\include/stm32g4xx_ll_rtc.h **** /**
 257:../../..\CubeG4\include/stm32g4xx_ll_rtc.h ****   * @}
 258:../../..\CubeG4\include/stm32g4xx_ll_rtc.h ****   */
 259:../../..\CubeG4\include/stm32g4xx_ll_rtc.h **** 
 260:../../..\CubeG4\include/stm32g4xx_ll_rtc.h **** /** @defgroup RTC_LL_EC_IT IT Defines
 261:../../..\CubeG4\include/stm32g4xx_ll_rtc.h ****   * @brief    IT defines which can be used with LL_RTC_ReadReg and  LL_RTC_WriteReg functions
 262:../../..\CubeG4\include/stm32g4xx_ll_rtc.h ****   * @{
 263:../../..\CubeG4\include/stm32g4xx_ll_rtc.h ****   */
 264:../../..\CubeG4\include/stm32g4xx_ll_rtc.h **** #define LL_RTC_CR_TSIE                     RTC_CR_TSIE
 265:../../..\CubeG4\include/stm32g4xx_ll_rtc.h **** #define LL_RTC_CR_WUTIE                    RTC_CR_WUTIE
 266:../../..\CubeG4\include/stm32g4xx_ll_rtc.h **** #define LL_RTC_CR_ALRBIE                   RTC_CR_ALRBIE
 267:../../..\CubeG4\include/stm32g4xx_ll_rtc.h **** #define LL_RTC_CR_ALRAIE                   RTC_CR_ALRAIE
 268:../../..\CubeG4\include/stm32g4xx_ll_rtc.h **** /**
 269:../../..\CubeG4\include/stm32g4xx_ll_rtc.h ****   * @}
 270:../../..\CubeG4\include/stm32g4xx_ll_rtc.h ****   */
 271:../../..\CubeG4\include/stm32g4xx_ll_rtc.h **** 
 272:../../..\CubeG4\include/stm32g4xx_ll_rtc.h **** /** @defgroup RTC_LL_EC_WEEKDAY  WEEK DAY
 273:../../..\CubeG4\include/stm32g4xx_ll_rtc.h ****   * @{
 274:../../..\CubeG4\include/stm32g4xx_ll_rtc.h ****   */
 275:../../..\CubeG4\include/stm32g4xx_ll_rtc.h **** #define LL_RTC_WEEKDAY_MONDAY              (uint8_t)0x01 /*!< Monday    */
 276:../../..\CubeG4\include/stm32g4xx_ll_rtc.h **** #define LL_RTC_WEEKDAY_TUESDAY             (uint8_t)0x02 /*!< Tuesday   */
 277:../../..\CubeG4\include/stm32g4xx_ll_rtc.h **** #define LL_RTC_WEEKDAY_WEDNESDAY           (uint8_t)0x03 /*!< Wednesday */
 278:../../..\CubeG4\include/stm32g4xx_ll_rtc.h **** #define LL_RTC_WEEKDAY_THURSDAY            (uint8_t)0x04 /*!< Thrusday  */
 279:../../..\CubeG4\include/stm32g4xx_ll_rtc.h **** #define LL_RTC_WEEKDAY_FRIDAY              (uint8_t)0x05 /*!< Friday    */
 280:../../..\CubeG4\include/stm32g4xx_ll_rtc.h **** #define LL_RTC_WEEKDAY_SATURDAY            (uint8_t)0x06 /*!< Saturday  */
 281:../../..\CubeG4\include/stm32g4xx_ll_rtc.h **** #define LL_RTC_WEEKDAY_SUNDAY              (uint8_t)0x07 /*!< Sunday    */
 282:../../..\CubeG4\include/stm32g4xx_ll_rtc.h **** /**
 283:../../..\CubeG4\include/stm32g4xx_ll_rtc.h ****   * @}
 284:../../..\CubeG4\include/stm32g4xx_ll_rtc.h ****   */
 285:../../..\CubeG4\include/stm32g4xx_ll_rtc.h **** 
 286:../../..\CubeG4\include/stm32g4xx_ll_rtc.h **** /** @defgroup RTC_LL_EC_MONTH  MONTH
 287:../../..\CubeG4\include/stm32g4xx_ll_rtc.h ****   * @{
 288:../../..\CubeG4\include/stm32g4xx_ll_rtc.h ****   */
 289:../../..\CubeG4\include/stm32g4xx_ll_rtc.h **** #define LL_RTC_MONTH_JANUARY               (uint8_t)0x01  /*!< January   */
 290:../../..\CubeG4\include/stm32g4xx_ll_rtc.h **** #define LL_RTC_MONTH_FEBRUARY              (uint8_t)0x02  /*!< February  */
 291:../../..\CubeG4\include/stm32g4xx_ll_rtc.h **** #define LL_RTC_MONTH_MARCH                 (uint8_t)0x03  /*!< March     */
 292:../../..\CubeG4\include/stm32g4xx_ll_rtc.h **** #define LL_RTC_MONTH_APRIL                 (uint8_t)0x04  /*!< April     */
 293:../../..\CubeG4\include/stm32g4xx_ll_rtc.h **** #define LL_RTC_MONTH_MAY                   (uint8_t)0x05  /*!< May       */
 294:../../..\CubeG4\include/stm32g4xx_ll_rtc.h **** #define LL_RTC_MONTH_JUNE                  (uint8_t)0x06  /*!< June      */
 295:../../..\CubeG4\include/stm32g4xx_ll_rtc.h **** #define LL_RTC_MONTH_JULY                  (uint8_t)0x07  /*!< July      */
 296:../../..\CubeG4\include/stm32g4xx_ll_rtc.h **** #define LL_RTC_MONTH_AUGUST                (uint8_t)0x08  /*!< August    */
 297:../../..\CubeG4\include/stm32g4xx_ll_rtc.h **** #define LL_RTC_MONTH_SEPTEMBER             (uint8_t)0x09  /*!< September */
 298:../../..\CubeG4\include/stm32g4xx_ll_rtc.h **** #define LL_RTC_MONTH_OCTOBER               (uint8_t)0x10  /*!< October   */
 299:../../..\CubeG4\include/stm32g4xx_ll_rtc.h **** #define LL_RTC_MONTH_NOVEMBER              (uint8_t)0x11  /*!< November  */
 300:../../..\CubeG4\include/stm32g4xx_ll_rtc.h **** #define LL_RTC_MONTH_DECEMBER              (uint8_t)0x12  /*!< December  */
 301:../../..\CubeG4\include/stm32g4xx_ll_rtc.h **** /**
 302:../../..\CubeG4\include/stm32g4xx_ll_rtc.h ****   * @}
 303:../../..\CubeG4\include/stm32g4xx_ll_rtc.h ****   */
 304:../../..\CubeG4\include/stm32g4xx_ll_rtc.h **** 
 305:../../..\CubeG4\include/stm32g4xx_ll_rtc.h **** /** @defgroup RTC_LL_EC_HOURFORMAT  HOUR FORMAT
 306:../../..\CubeG4\include/stm32g4xx_ll_rtc.h ****   * @{
 307:../../..\CubeG4\include/stm32g4xx_ll_rtc.h ****   */
 308:../../..\CubeG4\include/stm32g4xx_ll_rtc.h **** #define LL_RTC_HOURFORMAT_24HOUR           0x00000000U             /*!< 24 hour/day format */
 309:../../..\CubeG4\include/stm32g4xx_ll_rtc.h **** #define LL_RTC_HOURFORMAT_AMPM             RTC_CR_FMT            /*!< AM/PM hour format */
 310:../../..\CubeG4\include/stm32g4xx_ll_rtc.h **** /**
 311:../../..\CubeG4\include/stm32g4xx_ll_rtc.h ****   * @}
 312:../../..\CubeG4\include/stm32g4xx_ll_rtc.h ****   */
 313:../../..\CubeG4\include/stm32g4xx_ll_rtc.h **** 
 314:../../..\CubeG4\include/stm32g4xx_ll_rtc.h **** /** @defgroup RTC_LL_EC_ALARMOUT  ALARM OUTPUT
 315:../../..\CubeG4\include/stm32g4xx_ll_rtc.h ****   * @{
 316:../../..\CubeG4\include/stm32g4xx_ll_rtc.h ****   */
 317:../../..\CubeG4\include/stm32g4xx_ll_rtc.h **** #define LL_RTC_ALARMOUT_DISABLE            0x00000000U             /*!< Output disabled */
 318:../../..\CubeG4\include/stm32g4xx_ll_rtc.h **** #define LL_RTC_ALARMOUT_ALMA               RTC_CR_OSEL_0           /*!< Alarm A output enabled */
 319:../../..\CubeG4\include/stm32g4xx_ll_rtc.h **** #define LL_RTC_ALARMOUT_ALMB               RTC_CR_OSEL_1           /*!< Alarm B output enabled */
 320:../../..\CubeG4\include/stm32g4xx_ll_rtc.h **** #define LL_RTC_ALARMOUT_WAKEUP             RTC_CR_OSEL             /*!< Wakeup output enabled */
 321:../../..\CubeG4\include/stm32g4xx_ll_rtc.h **** /**
 322:../../..\CubeG4\include/stm32g4xx_ll_rtc.h ****   * @}
 323:../../..\CubeG4\include/stm32g4xx_ll_rtc.h ****   */
 324:../../..\CubeG4\include/stm32g4xx_ll_rtc.h **** 
 325:../../..\CubeG4\include/stm32g4xx_ll_rtc.h **** /** @defgroup RTC_LL_EC_ALARM_OUTPUTTYPE  ALARM OUTPUT TYPE
 326:../../..\CubeG4\include/stm32g4xx_ll_rtc.h ****   * @{
 327:../../..\CubeG4\include/stm32g4xx_ll_rtc.h ****   */
 328:../../..\CubeG4\include/stm32g4xx_ll_rtc.h **** #define LL_RTC_ALARM_OUTPUTTYPE_OPENDRAIN  RTC_CR_TAMPALRM_TYPE    /*!< RTC_ALARM is open-drain out
 329:../../..\CubeG4\include/stm32g4xx_ll_rtc.h **** #define LL_RTC_ALARM_OUTPUTTYPE_PUSHPULL   0x00000000U             /*!< RTC_ALARM is push-pull outp
 330:../../..\CubeG4\include/stm32g4xx_ll_rtc.h **** /**
 331:../../..\CubeG4\include/stm32g4xx_ll_rtc.h ****   * @}
 332:../../..\CubeG4\include/stm32g4xx_ll_rtc.h ****   */
 333:../../..\CubeG4\include/stm32g4xx_ll_rtc.h **** 
 334:../../..\CubeG4\include/stm32g4xx_ll_rtc.h **** /** @defgroup RTC_LL_EC_OUTPUTPOLARITY_PIN  OUTPUT POLARITY PIN
 335:../../..\CubeG4\include/stm32g4xx_ll_rtc.h ****   * @{
 336:../../..\CubeG4\include/stm32g4xx_ll_rtc.h ****   */
 337:../../..\CubeG4\include/stm32g4xx_ll_rtc.h **** #define LL_RTC_OUTPUTPOLARITY_PIN_HIGH     0x00000000U           /*!< Pin is high when ALRAF/ALRBF/
 338:../../..\CubeG4\include/stm32g4xx_ll_rtc.h **** #define LL_RTC_OUTPUTPOLARITY_PIN_LOW      RTC_CR_POL            /*!< Pin is low when ALRAF/ALRBF/W
 339:../../..\CubeG4\include/stm32g4xx_ll_rtc.h **** /**
 340:../../..\CubeG4\include/stm32g4xx_ll_rtc.h ****   * @}
 341:../../..\CubeG4\include/stm32g4xx_ll_rtc.h ****   */
 342:../../..\CubeG4\include/stm32g4xx_ll_rtc.h **** 
 343:../../..\CubeG4\include/stm32g4xx_ll_rtc.h **** /** @defgroup RTC_LL_EC_TIME_FORMAT TIME FORMAT
 344:../../..\CubeG4\include/stm32g4xx_ll_rtc.h ****   * @{
 345:../../..\CubeG4\include/stm32g4xx_ll_rtc.h ****   */
 346:../../..\CubeG4\include/stm32g4xx_ll_rtc.h **** #define LL_RTC_TIME_FORMAT_AM_OR_24        0x00000000U           /*!< AM or 24-hour format */
 347:../../..\CubeG4\include/stm32g4xx_ll_rtc.h **** #define LL_RTC_TIME_FORMAT_PM              RTC_TR_PM             /*!< PM */
 348:../../..\CubeG4\include/stm32g4xx_ll_rtc.h **** /**
 349:../../..\CubeG4\include/stm32g4xx_ll_rtc.h ****   * @}
 350:../../..\CubeG4\include/stm32g4xx_ll_rtc.h ****   */
 351:../../..\CubeG4\include/stm32g4xx_ll_rtc.h **** 
 352:../../..\CubeG4\include/stm32g4xx_ll_rtc.h **** /** @defgroup RTC_LL_EC_SHIFT_SECOND  SHIFT SECOND
 353:../../..\CubeG4\include/stm32g4xx_ll_rtc.h ****   * @{
 354:../../..\CubeG4\include/stm32g4xx_ll_rtc.h ****   */
 355:../../..\CubeG4\include/stm32g4xx_ll_rtc.h **** #define LL_RTC_SHIFT_SECOND_DELAY          0x00000000U           /* Delay (seconds) = SUBFS / (PRED
 356:../../..\CubeG4\include/stm32g4xx_ll_rtc.h **** #define LL_RTC_SHIFT_SECOND_ADVANCE        RTC_SHIFTR_ADD1S      /* Advance (seconds) = (1 - (SUBFS
 357:../../..\CubeG4\include/stm32g4xx_ll_rtc.h **** /**
 358:../../..\CubeG4\include/stm32g4xx_ll_rtc.h ****   * @}
 359:../../..\CubeG4\include/stm32g4xx_ll_rtc.h ****   */
 360:../../..\CubeG4\include/stm32g4xx_ll_rtc.h **** 
 361:../../..\CubeG4\include/stm32g4xx_ll_rtc.h **** /** @defgroup RTC_LL_EC_ALMA_MASK  ALARMA MASK
 362:../../..\CubeG4\include/stm32g4xx_ll_rtc.h ****   * @{
 363:../../..\CubeG4\include/stm32g4xx_ll_rtc.h ****   */
 364:../../..\CubeG4\include/stm32g4xx_ll_rtc.h **** #define LL_RTC_ALMA_MASK_NONE              0x00000000U             /*!< No masks applied on Alarm A
 365:../../..\CubeG4\include/stm32g4xx_ll_rtc.h **** #define LL_RTC_ALMA_MASK_DATEWEEKDAY       RTC_ALRMAR_MSK4         /*!< Date/day do not care in Ala
 366:../../..\CubeG4\include/stm32g4xx_ll_rtc.h **** #define LL_RTC_ALMA_MASK_HOURS             RTC_ALRMAR_MSK3         /*!< Hours do not care in Alarm 
 367:../../..\CubeG4\include/stm32g4xx_ll_rtc.h **** #define LL_RTC_ALMA_MASK_MINUTES           RTC_ALRMAR_MSK2         /*!< Minutes do not care in Alar
 368:../../..\CubeG4\include/stm32g4xx_ll_rtc.h **** #define LL_RTC_ALMA_MASK_SECONDS           RTC_ALRMAR_MSK1         /*!< Seconds do not care in Alar
 369:../../..\CubeG4\include/stm32g4xx_ll_rtc.h **** #define LL_RTC_ALMA_MASK_ALL               (RTC_ALRMAR_MSK4 | RTC_ALRMAR_MSK3 | RTC_ALRMAR_MSK2 | R
 370:../../..\CubeG4\include/stm32g4xx_ll_rtc.h **** /**
 371:../../..\CubeG4\include/stm32g4xx_ll_rtc.h ****   * @}
 372:../../..\CubeG4\include/stm32g4xx_ll_rtc.h ****   */
 373:../../..\CubeG4\include/stm32g4xx_ll_rtc.h **** 
 374:../../..\CubeG4\include/stm32g4xx_ll_rtc.h **** /** @defgroup RTC_LL_EC_ALMA_TIME_FORMAT  ALARMA TIME FORMAT
 375:../../..\CubeG4\include/stm32g4xx_ll_rtc.h ****   * @{
 376:../../..\CubeG4\include/stm32g4xx_ll_rtc.h ****   */
 377:../../..\CubeG4\include/stm32g4xx_ll_rtc.h **** #define LL_RTC_ALMA_TIME_FORMAT_AM         0x00000000U           /*!< AM or 24-hour format */
 378:../../..\CubeG4\include/stm32g4xx_ll_rtc.h **** #define LL_RTC_ALMA_TIME_FORMAT_PM         RTC_ALRMAR_PM         /*!< PM */
 379:../../..\CubeG4\include/stm32g4xx_ll_rtc.h **** /**
 380:../../..\CubeG4\include/stm32g4xx_ll_rtc.h ****   * @}
 381:../../..\CubeG4\include/stm32g4xx_ll_rtc.h ****   */
 382:../../..\CubeG4\include/stm32g4xx_ll_rtc.h **** 
 383:../../..\CubeG4\include/stm32g4xx_ll_rtc.h **** /** @defgroup RTC_LL_EC_ALMB_MASK  ALARMB MASK
 384:../../..\CubeG4\include/stm32g4xx_ll_rtc.h ****   * @{
 385:../../..\CubeG4\include/stm32g4xx_ll_rtc.h ****   */
 386:../../..\CubeG4\include/stm32g4xx_ll_rtc.h **** #define LL_RTC_ALMB_MASK_NONE              0x00000000U             /*!< No masks applied on Alarm B
 387:../../..\CubeG4\include/stm32g4xx_ll_rtc.h **** #define LL_RTC_ALMB_MASK_DATEWEEKDAY       RTC_ALRMBR_MSK4         /*!< Date/day do not care in Ala
 388:../../..\CubeG4\include/stm32g4xx_ll_rtc.h **** #define LL_RTC_ALMB_MASK_HOURS             RTC_ALRMBR_MSK3         /*!< Hours do not care in Alarm 
 389:../../..\CubeG4\include/stm32g4xx_ll_rtc.h **** #define LL_RTC_ALMB_MASK_MINUTES           RTC_ALRMBR_MSK2         /*!< Minutes do not care in Alar
 390:../../..\CubeG4\include/stm32g4xx_ll_rtc.h **** #define LL_RTC_ALMB_MASK_SECONDS           RTC_ALRMBR_MSK1         /*!< Seconds do not care in Alar
 391:../../..\CubeG4\include/stm32g4xx_ll_rtc.h **** #define LL_RTC_ALMB_MASK_ALL               (RTC_ALRMBR_MSK4 | RTC_ALRMBR_MSK3 | RTC_ALRMBR_MSK2 | R
 392:../../..\CubeG4\include/stm32g4xx_ll_rtc.h **** /**
 393:../../..\CubeG4\include/stm32g4xx_ll_rtc.h ****   * @}
 394:../../..\CubeG4\include/stm32g4xx_ll_rtc.h ****   */
 395:../../..\CubeG4\include/stm32g4xx_ll_rtc.h **** 
 396:../../..\CubeG4\include/stm32g4xx_ll_rtc.h **** /** @defgroup RTC_LL_EC_ALMB_TIME_FORMAT  ALARMB TIME FORMAT
 397:../../..\CubeG4\include/stm32g4xx_ll_rtc.h ****   * @{
 398:../../..\CubeG4\include/stm32g4xx_ll_rtc.h ****   */
 399:../../..\CubeG4\include/stm32g4xx_ll_rtc.h **** #define LL_RTC_ALMB_TIME_FORMAT_AM         0x00000000U           /*!< AM or 24-hour format */
 400:../../..\CubeG4\include/stm32g4xx_ll_rtc.h **** #define LL_RTC_ALMB_TIME_FORMAT_PM         RTC_ALRMBR_PM         /*!< PM */
 401:../../..\CubeG4\include/stm32g4xx_ll_rtc.h **** /**
 402:../../..\CubeG4\include/stm32g4xx_ll_rtc.h ****   * @}
 403:../../..\CubeG4\include/stm32g4xx_ll_rtc.h ****   */
 404:../../..\CubeG4\include/stm32g4xx_ll_rtc.h **** 
 405:../../..\CubeG4\include/stm32g4xx_ll_rtc.h **** /** @defgroup RTC_LL_EC_TIMESTAMP_EDGE  TIMESTAMP EDGE
 406:../../..\CubeG4\include/stm32g4xx_ll_rtc.h ****   * @{
 407:../../..\CubeG4\include/stm32g4xx_ll_rtc.h ****   */
 408:../../..\CubeG4\include/stm32g4xx_ll_rtc.h **** #define LL_RTC_TIMESTAMP_EDGE_RISING       0x00000000U           /*!< RTC_TS input rising edge gene
 409:../../..\CubeG4\include/stm32g4xx_ll_rtc.h **** #define LL_RTC_TIMESTAMP_EDGE_FALLING      RTC_CR_TSEDGE         /*!< RTC_TS input falling edge gen
 410:../../..\CubeG4\include/stm32g4xx_ll_rtc.h **** /**
 411:../../..\CubeG4\include/stm32g4xx_ll_rtc.h ****   * @}
 412:../../..\CubeG4\include/stm32g4xx_ll_rtc.h ****   */
 413:../../..\CubeG4\include/stm32g4xx_ll_rtc.h **** 
 414:../../..\CubeG4\include/stm32g4xx_ll_rtc.h **** /** @defgroup RTC_LL_EC_TS_TIME_FORMAT  TIMESTAMP TIME FORMAT
 415:../../..\CubeG4\include/stm32g4xx_ll_rtc.h ****   * @{
 416:../../..\CubeG4\include/stm32g4xx_ll_rtc.h ****   */
 417:../../..\CubeG4\include/stm32g4xx_ll_rtc.h **** #define LL_RTC_TS_TIME_FORMAT_AM           0x00000000U           /*!< AM or 24-hour format */
 418:../../..\CubeG4\include/stm32g4xx_ll_rtc.h **** #define LL_RTC_TS_TIME_FORMAT_PM           RTC_TSTR_PM           /*!< PM */
 419:../../..\CubeG4\include/stm32g4xx_ll_rtc.h **** /**
 420:../../..\CubeG4\include/stm32g4xx_ll_rtc.h ****   * @}
 421:../../..\CubeG4\include/stm32g4xx_ll_rtc.h ****   */
 422:../../..\CubeG4\include/stm32g4xx_ll_rtc.h **** 
 423:../../..\CubeG4\include/stm32g4xx_ll_rtc.h **** /** @defgroup RTC_LL_EC_TAMPER  TAMPER
 424:../../..\CubeG4\include/stm32g4xx_ll_rtc.h ****   * @{
 425:../../..\CubeG4\include/stm32g4xx_ll_rtc.h ****   */
 426:../../..\CubeG4\include/stm32g4xx_ll_rtc.h **** #define LL_RTC_TAMPER_1                    TAMP_CR1_TAMP1E /*!< Tamper 1 input detection */
 427:../../..\CubeG4\include/stm32g4xx_ll_rtc.h **** #define LL_RTC_TAMPER_2                    TAMP_CR1_TAMP2E /*!< Tamper 2 input detection */
 428:../../..\CubeG4\include/stm32g4xx_ll_rtc.h **** #if (RTC_TAMP_NB == 3)
 429:../../..\CubeG4\include/stm32g4xx_ll_rtc.h **** #define LL_RTC_TAMPER_3                    TAMP_CR1_TAMP3E /*!< Tamper 3  input detection */
 430:../../..\CubeG4\include/stm32g4xx_ll_rtc.h **** #elif (RTC_TAMP_NB == 8)
 431:../../..\CubeG4\include/stm32g4xx_ll_rtc.h **** #define LL_RTC_TAMPER_3                    TAMP_CR1_TAMP3E /*!< Tamper 3  input detection */
 432:../../..\CubeG4\include/stm32g4xx_ll_rtc.h **** #define LL_RTC_TAMPER_3                    TAMP_CR1_TAMP3E /*!< Tamper 3  input detection */
 433:../../..\CubeG4\include/stm32g4xx_ll_rtc.h **** #define LL_RTC_TAMPER_4                    TAMP_CR1_TAMP4E /*!< Tamper 4  input detection */
 434:../../..\CubeG4\include/stm32g4xx_ll_rtc.h **** #define LL_RTC_TAMPER_5                    TAMP_CR1_TAMP5E /*!< Tamper 5  input detection */
 435:../../..\CubeG4\include/stm32g4xx_ll_rtc.h **** #define LL_RTC_TAMPER_6                    TAMP_CR1_TAMP6E /*!< Tamper 6  input detection */
 436:../../..\CubeG4\include/stm32g4xx_ll_rtc.h **** #define LL_RTC_TAMPER_7                    TAMP_CR1_TAMP7E /*!< Tamper 7  input detection */
 437:../../..\CubeG4\include/stm32g4xx_ll_rtc.h **** #define LL_RTC_TAMPER_8                    TAMP_CR1_TAMP8E /*!< Tamper 8  input detection */
 438:../../..\CubeG4\include/stm32g4xx_ll_rtc.h **** #else
 439:../../..\CubeG4\include/stm32g4xx_ll_rtc.h **** #warning "RTC_TAMP_NB is not correct"
 440:../../..\CubeG4\include/stm32g4xx_ll_rtc.h **** #endif /* (RTC_TAMP_NB) */
 441:../../..\CubeG4\include/stm32g4xx_ll_rtc.h **** /**
 442:../../..\CubeG4\include/stm32g4xx_ll_rtc.h ****   * @}
 443:../../..\CubeG4\include/stm32g4xx_ll_rtc.h ****   */
 444:../../..\CubeG4\include/stm32g4xx_ll_rtc.h **** 
 445:../../..\CubeG4\include/stm32g4xx_ll_rtc.h **** /** @defgroup RTC_LL_EC_TAMPER_MASK  TAMPER MASK
 446:../../..\CubeG4\include/stm32g4xx_ll_rtc.h ****   * @{
 447:../../..\CubeG4\include/stm32g4xx_ll_rtc.h ****   */
 448:../../..\CubeG4\include/stm32g4xx_ll_rtc.h **** #define LL_RTC_TAMPER_MASK_TAMPER1         TAMP_CR2_TAMP1MF /*!< Tamper 1 event generates a trigger
 449:../../..\CubeG4\include/stm32g4xx_ll_rtc.h **** #define LL_RTC_TAMPER_MASK_TAMPER2         TAMP_CR2_TAMP2MF /*!< Tamper 2 event generates a trigger
 450:../../..\CubeG4\include/stm32g4xx_ll_rtc.h **** #if (RTC_TAMP_NB == 3)
 451:../../..\CubeG4\include/stm32g4xx_ll_rtc.h **** #define LL_RTC_TAMPER_MASK_TAMPER3         TAMP_CR2_TAMP3MF /*!< Tamper 3 event generates a trigger
 452:../../..\CubeG4\include/stm32g4xx_ll_rtc.h **** #elif (RTC_TAMP_NB == 8)
 453:../../..\CubeG4\include/stm32g4xx_ll_rtc.h **** #define LL_RTC_TAMPER_MASK_TAMPER3         TAMP_CR2_TAMP3MF /*!< Tamper 3 event generates a trigger
 454:../../..\CubeG4\include/stm32g4xx_ll_rtc.h **** #define LL_RTC_TAMPER_MASK_TAMPER4         TAMP_CR2_TAMP4MF /*!< Tamper 4 event generates a trigger
 455:../../..\CubeG4\include/stm32g4xx_ll_rtc.h **** #define LL_RTC_TAMPER_MASK_TAMPER5         TAMP_CR2_TAMP5MF /*!< Tamper 5 event generates a trigger
 456:../../..\CubeG4\include/stm32g4xx_ll_rtc.h **** #define LL_RTC_TAMPER_MASK_TAMPER6         TAMP_CR2_TAMP6MF /*!< Tamper 6 event generates a trigger
 457:../../..\CubeG4\include/stm32g4xx_ll_rtc.h **** #define LL_RTC_TAMPER_MASK_TAMPER7         TAMP_CR2_TAMP7MF /*!< Tamper 7 event generates a trigger
 458:../../..\CubeG4\include/stm32g4xx_ll_rtc.h **** #define LL_RTC_TAMPER_MASK_TAMPER8         TAMP_CR2_TAMP8MF /*!< Tamper 8 event generates a trigger
 459:../../..\CubeG4\include/stm32g4xx_ll_rtc.h **** #else
 460:../../..\CubeG4\include/stm32g4xx_ll_rtc.h **** #warning "RTC_TAMP_NB is not correct"
 461:../../..\CubeG4\include/stm32g4xx_ll_rtc.h **** #endif /* (RTC_TAMP_NB) */
 462:../../..\CubeG4\include/stm32g4xx_ll_rtc.h **** /**
 463:../../..\CubeG4\include/stm32g4xx_ll_rtc.h ****   * @}
 464:../../..\CubeG4\include/stm32g4xx_ll_rtc.h ****   */
 465:../../..\CubeG4\include/stm32g4xx_ll_rtc.h **** 
 466:../../..\CubeG4\include/stm32g4xx_ll_rtc.h **** /** @defgroup RTC_LL_EC_TAMPER_NOERASE  TAMPER NO ERASE
 467:../../..\CubeG4\include/stm32g4xx_ll_rtc.h ****   * @{
 468:../../..\CubeG4\include/stm32g4xx_ll_rtc.h ****   */
 469:../../..\CubeG4\include/stm32g4xx_ll_rtc.h **** #define LL_RTC_TAMPER_NOERASE_TAMPER1      TAMP_CR2_TAMP1NOERASE /*!< Tamper 1 event does not erase
 470:../../..\CubeG4\include/stm32g4xx_ll_rtc.h **** #define LL_RTC_TAMPER_NOERASE_TAMPER2      TAMP_CR2_TAMP2NOERASE /*!< Tamper 2 event does not erase
 471:../../..\CubeG4\include/stm32g4xx_ll_rtc.h **** #if (RTC_TAMP_NB == 3)
 472:../../..\CubeG4\include/stm32g4xx_ll_rtc.h **** #define LL_RTC_TAMPER_NOERASE_TAMPER3      TAMP_CR2_TAMP3NOERASE /*!< Tamper 3 event does not erase
 473:../../..\CubeG4\include/stm32g4xx_ll_rtc.h **** #elif (RTC_TAMP_NB == 8)
 474:../../..\CubeG4\include/stm32g4xx_ll_rtc.h **** #define LL_RTC_TAMPER_NOERASE_TAMPER3      TAMP_CR2_TAMP3NOERASE /*!< Tamper 3 event does not erase
 475:../../..\CubeG4\include/stm32g4xx_ll_rtc.h **** #define LL_RTC_TAMPER_NOERASE_TAMPER4      TAMP_CR2_TAMP4NOERASE /*!< Tamper 4 event does not erase
 476:../../..\CubeG4\include/stm32g4xx_ll_rtc.h **** #define LL_RTC_TAMPER_NOERASE_TAMPER5      TAMP_CR2_TAMP5NOERASE /*!< Tamper 5 event does not erase
 477:../../..\CubeG4\include/stm32g4xx_ll_rtc.h **** #define LL_RTC_TAMPER_NOERASE_TAMPER6      TAMP_CR2_TAMP6NOERASE /*!< Tamper 6 event does not erase
 478:../../..\CubeG4\include/stm32g4xx_ll_rtc.h **** #define LL_RTC_TAMPER_NOERASE_TAMPER7      TAMP_CR2_TAMP7NOERASE /*!< Tamper 7 event does not erase
 479:../../..\CubeG4\include/stm32g4xx_ll_rtc.h **** #define LL_RTC_TAMPER_NOERASE_TAMPER8      TAMP_CR2_TAMP8NOERASE /*!< Tamper 8 event does not erase
 480:../../..\CubeG4\include/stm32g4xx_ll_rtc.h **** #else
 481:../../..\CubeG4\include/stm32g4xx_ll_rtc.h **** #warning "RTC_TAMP_NB is not correct"
 482:../../..\CubeG4\include/stm32g4xx_ll_rtc.h **** #endif /* (RTC_TAMP_NB) */
 483:../../..\CubeG4\include/stm32g4xx_ll_rtc.h **** /**
 484:../../..\CubeG4\include/stm32g4xx_ll_rtc.h ****   * @}
 485:../../..\CubeG4\include/stm32g4xx_ll_rtc.h ****   */
 486:../../..\CubeG4\include/stm32g4xx_ll_rtc.h **** 
 487:../../..\CubeG4\include/stm32g4xx_ll_rtc.h **** /** @defgroup RTC_LL_EC_TAMPER_DURATION  TAMPER DURATION
 488:../../..\CubeG4\include/stm32g4xx_ll_rtc.h ****   * @{
 489:../../..\CubeG4\include/stm32g4xx_ll_rtc.h ****   */
 490:../../..\CubeG4\include/stm32g4xx_ll_rtc.h **** #define LL_RTC_TAMPER_DURATION_1RTCCLK     0x00000000U            /*!< Tamper pins are pre-charged 
 491:../../..\CubeG4\include/stm32g4xx_ll_rtc.h **** #define LL_RTC_TAMPER_DURATION_2RTCCLK     TAMP_FLTCR_TAMPPRCH_0  /*!< Tamper pins are pre-charged 
 492:../../..\CubeG4\include/stm32g4xx_ll_rtc.h **** #define LL_RTC_TAMPER_DURATION_4RTCCLK     TAMP_FLTCR_TAMPPRCH_1  /*!< Tamper pins are pre-charged 
 493:../../..\CubeG4\include/stm32g4xx_ll_rtc.h **** #define LL_RTC_TAMPER_DURATION_8RTCCLK     TAMP_FLTCR_TAMPPRCH    /*!< Tamper pins are pre-charged 
 494:../../..\CubeG4\include/stm32g4xx_ll_rtc.h **** /**
 495:../../..\CubeG4\include/stm32g4xx_ll_rtc.h ****   * @}
 496:../../..\CubeG4\include/stm32g4xx_ll_rtc.h ****   */
 497:../../..\CubeG4\include/stm32g4xx_ll_rtc.h **** 
 498:../../..\CubeG4\include/stm32g4xx_ll_rtc.h **** /** @defgroup RTC_LL_EC_TAMPER_FILTER  TAMPER FILTER
 499:../../..\CubeG4\include/stm32g4xx_ll_rtc.h ****   * @{
 500:../../..\CubeG4\include/stm32g4xx_ll_rtc.h ****   */
 501:../../..\CubeG4\include/stm32g4xx_ll_rtc.h **** #define LL_RTC_TAMPER_FILTER_DISABLE       0x00000000U             /*!< Tamper filter is disabled *
 502:../../..\CubeG4\include/stm32g4xx_ll_rtc.h **** #define LL_RTC_TAMPER_FILTER_2SAMPLE       TAMP_FLTCR_TAMPFLT_0    /*!< Tamper is activated after 2
 503:../../..\CubeG4\include/stm32g4xx_ll_rtc.h **** #define LL_RTC_TAMPER_FILTER_4SAMPLE       TAMP_FLTCR_TAMPFLT_1    /*!< Tamper is activated after 4
 504:../../..\CubeG4\include/stm32g4xx_ll_rtc.h **** #define LL_RTC_TAMPER_FILTER_8SAMPLE       TAMP_FLTCR_TAMPFLT      /*!< Tamper is activated after 8
 505:../../..\CubeG4\include/stm32g4xx_ll_rtc.h **** /**
 506:../../..\CubeG4\include/stm32g4xx_ll_rtc.h ****   * @}
 507:../../..\CubeG4\include/stm32g4xx_ll_rtc.h ****   */
 508:../../..\CubeG4\include/stm32g4xx_ll_rtc.h **** 
 509:../../..\CubeG4\include/stm32g4xx_ll_rtc.h **** /** @defgroup RTC_LL_EC_TAMPER_SAMPLFREQDIV  TAMPER SAMPLING FREQUENCY DIVIDER
 510:../../..\CubeG4\include/stm32g4xx_ll_rtc.h ****   * @{
 511:../../..\CubeG4\include/stm32g4xx_ll_rtc.h ****   */
 512:../../..\CubeG4\include/stm32g4xx_ll_rtc.h **** #define LL_RTC_TAMPER_SAMPLFREQDIV_32768   0x00000000U                                     /*!< Eac
 513:../../..\CubeG4\include/stm32g4xx_ll_rtc.h **** #define LL_RTC_TAMPER_SAMPLFREQDIV_16384   TAMP_FLTCR_TAMPFREQ_0                           /*!< Eac
 514:../../..\CubeG4\include/stm32g4xx_ll_rtc.h **** #define LL_RTC_TAMPER_SAMPLFREQDIV_8192    TAMP_FLTCR_TAMPFREQ_1                           /*!< Eac
 515:../../..\CubeG4\include/stm32g4xx_ll_rtc.h **** #define LL_RTC_TAMPER_SAMPLFREQDIV_4096    (TAMP_FLTCR_TAMPFREQ_1 | TAMP_FLTCR_TAMPFREQ_0) /*!< Eac
 516:../../..\CubeG4\include/stm32g4xx_ll_rtc.h **** #define LL_RTC_TAMPER_SAMPLFREQDIV_2048    TAMP_FLTCR_TAMPFREQ_2                           /*!< Eac
 517:../../..\CubeG4\include/stm32g4xx_ll_rtc.h **** #define LL_RTC_TAMPER_SAMPLFREQDIV_1024    (TAMP_FLTCR_TAMPFREQ_2 | TAMP_FLTCR_TAMPFREQ_0) /*!< Eac
 518:../../..\CubeG4\include/stm32g4xx_ll_rtc.h **** #define LL_RTC_TAMPER_SAMPLFREQDIV_512     (TAMP_FLTCR_TAMPFREQ_2 | TAMP_FLTCR_TAMPFREQ_1) /*!< Eac
 519:../../..\CubeG4\include/stm32g4xx_ll_rtc.h **** #define LL_RTC_TAMPER_SAMPLFREQDIV_256     TAMP_FLTCR_TAMPFREQ                             /*!< Eac
 520:../../..\CubeG4\include/stm32g4xx_ll_rtc.h **** /**
 521:../../..\CubeG4\include/stm32g4xx_ll_rtc.h ****   * @}
 522:../../..\CubeG4\include/stm32g4xx_ll_rtc.h ****   */
 523:../../..\CubeG4\include/stm32g4xx_ll_rtc.h **** 
 524:../../..\CubeG4\include/stm32g4xx_ll_rtc.h **** /** @defgroup RTC_LL_EC_TAMPER_ACTIVELEVEL  TAMPER ACTIVE LEVEL
 525:../../..\CubeG4\include/stm32g4xx_ll_rtc.h ****   * @{
 526:../../..\CubeG4\include/stm32g4xx_ll_rtc.h ****   */
 527:../../..\CubeG4\include/stm32g4xx_ll_rtc.h **** #define LL_RTC_TAMPER_ACTIVELEVEL_TAMP1    TAMP_CR2_TAMP1TRG /*!< Tamper 1 input falling edge (if T
 528:../../..\CubeG4\include/stm32g4xx_ll_rtc.h **** #define LL_RTC_TAMPER_ACTIVELEVEL_TAMP2    TAMP_CR2_TAMP2TRG /*!< Tamper 2 input falling edge (if T
 529:../../..\CubeG4\include/stm32g4xx_ll_rtc.h **** #if (RTC_TAMP_NB == 3)
 530:../../..\CubeG4\include/stm32g4xx_ll_rtc.h **** #define LL_RTC_TAMPER_ACTIVELEVEL_TAMP3    TAMP_CR2_TAMP3TRG /*!< Tamper 3 input falling edge (if T
 531:../../..\CubeG4\include/stm32g4xx_ll_rtc.h **** #elif (RTC_TAMP_NB == 8)
 532:../../..\CubeG4\include/stm32g4xx_ll_rtc.h **** #define LL_RTC_TAMPER_ACTIVELEVEL_TAMP3    TAMP_CR2_TAMP3TRG /*!< Tamper 3 input falling edge (if T
 533:../../..\CubeG4\include/stm32g4xx_ll_rtc.h **** #define LL_RTC_TAMPER_ACTIVELEVEL_TAMP4    TAMP_CR2_TAMP4TRG /*!< Tamper 4 input falling edge (if T
 534:../../..\CubeG4\include/stm32g4xx_ll_rtc.h **** #define LL_RTC_TAMPER_ACTIVELEVEL_TAMP5    TAMP_CR2_TAMP5TRG /*!< Tamper 5 input falling edge (if T
 535:../../..\CubeG4\include/stm32g4xx_ll_rtc.h **** #define LL_RTC_TAMPER_ACTIVELEVEL_TAMP6    TAMP_CR2_TAMP6TRG /*!< Tamper 6 input falling edge (if T
 536:../../..\CubeG4\include/stm32g4xx_ll_rtc.h **** #define LL_RTC_TAMPER_ACTIVELEVEL_TAMP7    TAMP_CR2_TAMP7TRG /*!< Tamper 7 input falling edge (if T
 537:../../..\CubeG4\include/stm32g4xx_ll_rtc.h **** #define LL_RTC_TAMPER_ACTIVELEVEL_TAMP8    TAMP_CR2_TAMP8TRG /*!< Tamper 8 input falling edge (if T
 538:../../..\CubeG4\include/stm32g4xx_ll_rtc.h **** #endif /* (RTC_TAMP_NB) */
 539:../../..\CubeG4\include/stm32g4xx_ll_rtc.h **** /**
 540:../../..\CubeG4\include/stm32g4xx_ll_rtc.h ****   * @}
 541:../../..\CubeG4\include/stm32g4xx_ll_rtc.h ****   */
 542:../../..\CubeG4\include/stm32g4xx_ll_rtc.h **** 
 543:../../..\CubeG4\include/stm32g4xx_ll_rtc.h **** 
 544:../../..\CubeG4\include/stm32g4xx_ll_rtc.h **** /** @defgroup RTC_LL_EC_INTERNAL  INTERNAL TAMPER
 545:../../..\CubeG4\include/stm32g4xx_ll_rtc.h ****   * @{
 546:../../..\CubeG4\include/stm32g4xx_ll_rtc.h ****   */
 547:../../..\CubeG4\include/stm32g4xx_ll_rtc.h **** #define LL_RTC_TAMPER_ITAMP1           TAMP_CR1_ITAMP1E /*!< Internal tamper 1: RTC supply voltage 
 548:../../..\CubeG4\include/stm32g4xx_ll_rtc.h **** #if defined (RTC_TAMP_INT_2_SUPPORT)
 549:../../..\CubeG4\include/stm32g4xx_ll_rtc.h **** #define LL_RTC_TAMPER_ITAMP2           TAMP_CR1_ITAMP2E /*!< Internal tamper 2: temperature monitor
 550:../../..\CubeG4\include/stm32g4xx_ll_rtc.h **** #endif /* RTC_TAMP_INT_2_SUPPORT */
 551:../../..\CubeG4\include/stm32g4xx_ll_rtc.h **** #define LL_RTC_TAMPER_ITAMP3           TAMP_CR1_ITAMP3E /*!< Internal tamper 3: LSE monitoring */
 552:../../..\CubeG4\include/stm32g4xx_ll_rtc.h **** #define LL_RTC_TAMPER_ITAMP4           TAMP_CR1_ITAMP4E /*!< Internal tamper 4: HSE monitoring */
 553:../../..\CubeG4\include/stm32g4xx_ll_rtc.h **** #define LL_RTC_TAMPER_ITAMP5           TAMP_CR1_ITAMP5E /*!< Internal tamper 5: RTC calendar overfl
 554:../../..\CubeG4\include/stm32g4xx_ll_rtc.h **** #if defined (RTC_TAMP_INT_6_SUPPORT)
 555:../../..\CubeG4\include/stm32g4xx_ll_rtc.h **** #define LL_RTC_TAMPER_ITAMP6           TAMP_CR1_ITAMP6E /*!< Internal tamper 6: Test mode entry */
 556:../../..\CubeG4\include/stm32g4xx_ll_rtc.h **** #endif /* RTC_TAMP_INT_6_SUPPORT */
 557:../../..\CubeG4\include/stm32g4xx_ll_rtc.h **** #if defined (RTC_TAMP_INT_7_SUPPORT)
 558:../../..\CubeG4\include/stm32g4xx_ll_rtc.h **** #define LL_RTC_TAMPER_ITAMP7           TAMP_CR1_ITAMP7E /*!< Internal tamper 7: Readout protection 
 559:../../..\CubeG4\include/stm32g4xx_ll_rtc.h **** #endif /* RTC_TAMP_INT_7_SUPPORT */
 560:../../..\CubeG4\include/stm32g4xx_ll_rtc.h **** #if defined (RTC_TAMP_INT_8_SUPPORT)
 561:../../..\CubeG4\include/stm32g4xx_ll_rtc.h **** #define LL_RTC_TAMPER_ITAMP8           TAMP_CR1_ITAMP8E /*!< Internal tamper 8: Monotonic counter o
 562:../../..\CubeG4\include/stm32g4xx_ll_rtc.h **** #endif /* RTC_TAMP_INT_8_SUPPORT */
 563:../../..\CubeG4\include/stm32g4xx_ll_rtc.h **** 
 564:../../..\CubeG4\include/stm32g4xx_ll_rtc.h **** /**
 565:../../..\CubeG4\include/stm32g4xx_ll_rtc.h ****   * @}
 566:../../..\CubeG4\include/stm32g4xx_ll_rtc.h ****   */
 567:../../..\CubeG4\include/stm32g4xx_ll_rtc.h **** 
 568:../../..\CubeG4\include/stm32g4xx_ll_rtc.h **** /** @defgroup RTC_LL_EC_BKP  BACKUP
 569:../../..\CubeG4\include/stm32g4xx_ll_rtc.h ****   * @{
 570:../../..\CubeG4\include/stm32g4xx_ll_rtc.h ****   */
 571:../../..\CubeG4\include/stm32g4xx_ll_rtc.h **** #define LL_RTC_BKP_NUMBER                    RTC_BACKUP_NB
 572:../../..\CubeG4\include/stm32g4xx_ll_rtc.h **** #if (LL_RTC_BKP_NUMBER == 5)
 573:../../..\CubeG4\include/stm32g4xx_ll_rtc.h **** #define LL_RTC_BKP_DR0                       0x00U
 574:../../..\CubeG4\include/stm32g4xx_ll_rtc.h **** #define LL_RTC_BKP_DR1                       0x01U
 575:../../..\CubeG4\include/stm32g4xx_ll_rtc.h **** #define LL_RTC_BKP_DR2                       0x02U
 576:../../..\CubeG4\include/stm32g4xx_ll_rtc.h **** #define LL_RTC_BKP_DR3                       0x03U
 577:../../..\CubeG4\include/stm32g4xx_ll_rtc.h **** #define LL_RTC_BKP_DR4                       0x04U
 578:../../..\CubeG4\include/stm32g4xx_ll_rtc.h **** #elif (LL_RTC_BKP_NUMBER == 16)
 579:../../..\CubeG4\include/stm32g4xx_ll_rtc.h **** #define LL_RTC_BKP_DR0                       0x00U
 580:../../..\CubeG4\include/stm32g4xx_ll_rtc.h **** #define LL_RTC_BKP_DR1                       0x01U
 581:../../..\CubeG4\include/stm32g4xx_ll_rtc.h **** #define LL_RTC_BKP_DR2                       0x02U
 582:../../..\CubeG4\include/stm32g4xx_ll_rtc.h **** #define LL_RTC_BKP_DR3                       0x03U
 583:../../..\CubeG4\include/stm32g4xx_ll_rtc.h **** #define LL_RTC_BKP_DR4                       0x04U
 584:../../..\CubeG4\include/stm32g4xx_ll_rtc.h **** #define LL_RTC_BKP_DR5                       0x05U
 585:../../..\CubeG4\include/stm32g4xx_ll_rtc.h **** #define LL_RTC_BKP_DR6                       0x06U
 586:../../..\CubeG4\include/stm32g4xx_ll_rtc.h **** #define LL_RTC_BKP_DR7                       0x07U
 587:../../..\CubeG4\include/stm32g4xx_ll_rtc.h **** #define LL_RTC_BKP_DR8                       0x08U
 588:../../..\CubeG4\include/stm32g4xx_ll_rtc.h **** #define LL_RTC_BKP_DR9                       0x09U
 589:../../..\CubeG4\include/stm32g4xx_ll_rtc.h **** #define LL_RTC_BKP_DR10                      0x0AU
 590:../../..\CubeG4\include/stm32g4xx_ll_rtc.h **** #define LL_RTC_BKP_DR11                      0x0BU
 591:../../..\CubeG4\include/stm32g4xx_ll_rtc.h **** #define LL_RTC_BKP_DR12                      0x0CU
 592:../../..\CubeG4\include/stm32g4xx_ll_rtc.h **** #define LL_RTC_BKP_DR13                      0x0DU
 593:../../..\CubeG4\include/stm32g4xx_ll_rtc.h **** #define LL_RTC_BKP_DR14                      0x0EU
 594:../../..\CubeG4\include/stm32g4xx_ll_rtc.h **** #define LL_RTC_BKP_DR15                      0x0FU
 595:../../..\CubeG4\include/stm32g4xx_ll_rtc.h **** #elif (LL_RTC_BKP_NUMBER == 32)
 596:../../..\CubeG4\include/stm32g4xx_ll_rtc.h **** #define LL_RTC_BKP_DR0                       0x00U
 597:../../..\CubeG4\include/stm32g4xx_ll_rtc.h **** #define LL_RTC_BKP_DR1                       0x01U
 598:../../..\CubeG4\include/stm32g4xx_ll_rtc.h **** #define LL_RTC_BKP_DR2                       0x02U
 599:../../..\CubeG4\include/stm32g4xx_ll_rtc.h **** #define LL_RTC_BKP_DR3                       0x03U
 600:../../..\CubeG4\include/stm32g4xx_ll_rtc.h **** #define LL_RTC_BKP_DR4                       0x04U
 601:../../..\CubeG4\include/stm32g4xx_ll_rtc.h **** #define LL_RTC_BKP_DR5                       0x05U
 602:../../..\CubeG4\include/stm32g4xx_ll_rtc.h **** #define LL_RTC_BKP_DR6                       0x06U
 603:../../..\CubeG4\include/stm32g4xx_ll_rtc.h **** #define LL_RTC_BKP_DR7                       0x07U
 604:../../..\CubeG4\include/stm32g4xx_ll_rtc.h **** #define LL_RTC_BKP_DR8                       0x08U
 605:../../..\CubeG4\include/stm32g4xx_ll_rtc.h **** #define LL_RTC_BKP_DR9                       0x09U
 606:../../..\CubeG4\include/stm32g4xx_ll_rtc.h **** #define LL_RTC_BKP_DR10                      0x0AU
 607:../../..\CubeG4\include/stm32g4xx_ll_rtc.h **** #define LL_RTC_BKP_DR11                      0x0BU
 608:../../..\CubeG4\include/stm32g4xx_ll_rtc.h **** #define LL_RTC_BKP_DR12                      0x0CU
 609:../../..\CubeG4\include/stm32g4xx_ll_rtc.h **** #define LL_RTC_BKP_DR13                      0x0DU
 610:../../..\CubeG4\include/stm32g4xx_ll_rtc.h **** #define LL_RTC_BKP_DR14                      0x0EU
 611:../../..\CubeG4\include/stm32g4xx_ll_rtc.h **** #define LL_RTC_BKP_DR15                      0x0FU
 612:../../..\CubeG4\include/stm32g4xx_ll_rtc.h **** #define LL_RTC_BKP_DR16                      0x10U
 613:../../..\CubeG4\include/stm32g4xx_ll_rtc.h **** #define LL_RTC_BKP_DR17                      0x11U
 614:../../..\CubeG4\include/stm32g4xx_ll_rtc.h **** #define LL_RTC_BKP_DR18                      0x12U
 615:../../..\CubeG4\include/stm32g4xx_ll_rtc.h **** #define LL_RTC_BKP_DR19                      0x13U
 616:../../..\CubeG4\include/stm32g4xx_ll_rtc.h **** #define LL_RTC_BKP_DR20                      0x14U
 617:../../..\CubeG4\include/stm32g4xx_ll_rtc.h **** #define LL_RTC_BKP_DR21                      0x15U
 618:../../..\CubeG4\include/stm32g4xx_ll_rtc.h **** #define LL_RTC_BKP_DR22                      0x16U
 619:../../..\CubeG4\include/stm32g4xx_ll_rtc.h **** #define LL_RTC_BKP_DR23                      0x17U
 620:../../..\CubeG4\include/stm32g4xx_ll_rtc.h **** #define LL_RTC_BKP_DR24                      0x18U
 621:../../..\CubeG4\include/stm32g4xx_ll_rtc.h **** #define LL_RTC_BKP_DR25                      0x19U
 622:../../..\CubeG4\include/stm32g4xx_ll_rtc.h **** #define LL_RTC_BKP_DR26                      0x1AU
 623:../../..\CubeG4\include/stm32g4xx_ll_rtc.h **** #define LL_RTC_BKP_DR27                      0x1BU
 624:../../..\CubeG4\include/stm32g4xx_ll_rtc.h **** #define LL_RTC_BKP_DR28                      0x1CU
 625:../../..\CubeG4\include/stm32g4xx_ll_rtc.h **** #define LL_RTC_BKP_DR29                      0x1DU
 626:../../..\CubeG4\include/stm32g4xx_ll_rtc.h **** #define LL_RTC_BKP_DR30                      0x1EU
 627:../../..\CubeG4\include/stm32g4xx_ll_rtc.h **** #define LL_RTC_BKP_DR31                      0x1FU
 628:../../..\CubeG4\include/stm32g4xx_ll_rtc.h **** #else
 629:../../..\CubeG4\include/stm32g4xx_ll_rtc.h **** #error "no LL Backup Registers Definition"
 630:../../..\CubeG4\include/stm32g4xx_ll_rtc.h **** #endif /* (LL_RTC_BKP_NUMBER) */
 631:../../..\CubeG4\include/stm32g4xx_ll_rtc.h **** 
 632:../../..\CubeG4\include/stm32g4xx_ll_rtc.h **** /**
 633:../../..\CubeG4\include/stm32g4xx_ll_rtc.h ****   * @}
 634:../../..\CubeG4\include/stm32g4xx_ll_rtc.h ****   */
 635:../../..\CubeG4\include/stm32g4xx_ll_rtc.h **** 
 636:../../..\CubeG4\include/stm32g4xx_ll_rtc.h **** /** @defgroup RTC_LL_EC_WAKEUPCLOCK_DIV  WAKEUP CLOCK DIV
 637:../../..\CubeG4\include/stm32g4xx_ll_rtc.h ****   * @{
 638:../../..\CubeG4\include/stm32g4xx_ll_rtc.h ****   */
 639:../../..\CubeG4\include/stm32g4xx_ll_rtc.h **** #define LL_RTC_WAKEUPCLOCK_DIV_16          0x00000000U                           /*!< RTC/16 clock 
 640:../../..\CubeG4\include/stm32g4xx_ll_rtc.h **** #define LL_RTC_WAKEUPCLOCK_DIV_8           RTC_CR_WUCKSEL_0                      /*!< RTC/8 clock i
 641:../../..\CubeG4\include/stm32g4xx_ll_rtc.h **** #define LL_RTC_WAKEUPCLOCK_DIV_4           RTC_CR_WUCKSEL_1                      /*!< RTC/4 clock i
 642:../../..\CubeG4\include/stm32g4xx_ll_rtc.h **** #define LL_RTC_WAKEUPCLOCK_DIV_2           (RTC_CR_WUCKSEL_1 | RTC_CR_WUCKSEL_0) /*!< RTC/2 clock i
 643:../../..\CubeG4\include/stm32g4xx_ll_rtc.h **** #define LL_RTC_WAKEUPCLOCK_CKSPRE          RTC_CR_WUCKSEL_2                      /*!< ck_spre (usua
 644:../../..\CubeG4\include/stm32g4xx_ll_rtc.h **** #define LL_RTC_WAKEUPCLOCK_CKSPRE_WUT      (RTC_CR_WUCKSEL_2 | RTC_CR_WUCKSEL_1) /*!< ck_spre (usua
 645:../../..\CubeG4\include/stm32g4xx_ll_rtc.h **** /**
 646:../../..\CubeG4\include/stm32g4xx_ll_rtc.h ****   * @}
 647:../../..\CubeG4\include/stm32g4xx_ll_rtc.h ****   */
 648:../../..\CubeG4\include/stm32g4xx_ll_rtc.h **** 
 649:../../..\CubeG4\include/stm32g4xx_ll_rtc.h **** /** @defgroup RTC_LL_EC_CALIB_OUTPUT  Calibration output
 650:../../..\CubeG4\include/stm32g4xx_ll_rtc.h ****   * @{
 651:../../..\CubeG4\include/stm32g4xx_ll_rtc.h ****   */
 652:../../..\CubeG4\include/stm32g4xx_ll_rtc.h **** #define LL_RTC_CALIB_OUTPUT_NONE           0x00000000U                 /*!< Calibration output disa
 653:../../..\CubeG4\include/stm32g4xx_ll_rtc.h **** #define LL_RTC_CALIB_OUTPUT_1HZ            (RTC_CR_COE | RTC_CR_COSEL) /*!< Calibration output is 1
 654:../../..\CubeG4\include/stm32g4xx_ll_rtc.h **** #define LL_RTC_CALIB_OUTPUT_512HZ          RTC_CR_COE                  /*!< Calibration output is 5
 655:../../..\CubeG4\include/stm32g4xx_ll_rtc.h **** /**
 656:../../..\CubeG4\include/stm32g4xx_ll_rtc.h ****   * @}
 657:../../..\CubeG4\include/stm32g4xx_ll_rtc.h ****   */
 658:../../..\CubeG4\include/stm32g4xx_ll_rtc.h **** 
 659:../../..\CubeG4\include/stm32g4xx_ll_rtc.h **** /** @defgroup RTC_LL_EC_CALIB_INSERTPULSE  Calibration pulse insertion
 660:../../..\CubeG4\include/stm32g4xx_ll_rtc.h ****   * @{
 661:../../..\CubeG4\include/stm32g4xx_ll_rtc.h ****   */
 662:../../..\CubeG4\include/stm32g4xx_ll_rtc.h **** #define LL_RTC_CALIB_INSERTPULSE_NONE      0x00000000U           /*!< No RTCCLK pulses are added */
 663:../../..\CubeG4\include/stm32g4xx_ll_rtc.h **** #define LL_RTC_CALIB_INSERTPULSE_SET       RTC_CALR_CALP         /*!< One RTCCLK pulse is effective
 664:../../..\CubeG4\include/stm32g4xx_ll_rtc.h **** /**
 665:../../..\CubeG4\include/stm32g4xx_ll_rtc.h ****   * @}
 666:../../..\CubeG4\include/stm32g4xx_ll_rtc.h ****   */
 667:../../..\CubeG4\include/stm32g4xx_ll_rtc.h **** 
 668:../../..\CubeG4\include/stm32g4xx_ll_rtc.h **** /** @defgroup RTC_LL_EC_CALIB_PERIOD  Calibration period
 669:../../..\CubeG4\include/stm32g4xx_ll_rtc.h ****   * @{
 670:../../..\CubeG4\include/stm32g4xx_ll_rtc.h ****   */
 671:../../..\CubeG4\include/stm32g4xx_ll_rtc.h **** #define LL_RTC_CALIB_PERIOD_32SEC          0x00000000U           /*!< Use a 32-second calibration c
 672:../../..\CubeG4\include/stm32g4xx_ll_rtc.h **** #define LL_RTC_CALIB_PERIOD_16SEC          RTC_CALR_CALW16       /*!< Use a 16-second calibration c
 673:../../..\CubeG4\include/stm32g4xx_ll_rtc.h **** #define LL_RTC_CALIB_PERIOD_8SEC           RTC_CALR_CALW8        /*!< Use a 8-second calibration cy
 674:../../..\CubeG4\include/stm32g4xx_ll_rtc.h **** /**
 675:../../..\CubeG4\include/stm32g4xx_ll_rtc.h ****   * @}
 676:../../..\CubeG4\include/stm32g4xx_ll_rtc.h ****   */
 677:../../..\CubeG4\include/stm32g4xx_ll_rtc.h **** 
 678:../../..\CubeG4\include/stm32g4xx_ll_rtc.h **** /**
 679:../../..\CubeG4\include/stm32g4xx_ll_rtc.h ****   * @}
 680:../../..\CubeG4\include/stm32g4xx_ll_rtc.h ****   */
 681:../../..\CubeG4\include/stm32g4xx_ll_rtc.h **** 
 682:../../..\CubeG4\include/stm32g4xx_ll_rtc.h **** /* Exported macro ------------------------------------------------------------*/
 683:../../..\CubeG4\include/stm32g4xx_ll_rtc.h **** /** @defgroup RTC_LL_EM_Convert Convert helper Macros
 684:../../..\CubeG4\include/stm32g4xx_ll_rtc.h ****   * @{
 685:../../..\CubeG4\include/stm32g4xx_ll_rtc.h ****   */
 686:../../..\CubeG4\include/stm32g4xx_ll_rtc.h **** 
 687:../../..\CubeG4\include/stm32g4xx_ll_rtc.h **** /**
 688:../../..\CubeG4\include/stm32g4xx_ll_rtc.h ****   * @brief  Helper macro to convert a value from 2 digit decimal format to BCD format
 689:../../..\CubeG4\include/stm32g4xx_ll_rtc.h ****   * @param  __VALUE__ Byte to be converted
 690:../../..\CubeG4\include/stm32g4xx_ll_rtc.h ****   * @retval Converted byte
 691:../../..\CubeG4\include/stm32g4xx_ll_rtc.h ****   */
 692:../../..\CubeG4\include/stm32g4xx_ll_rtc.h **** #define __LL_RTC_CONVERT_BIN2BCD(__VALUE__) (uint8_t)((((__VALUE__) / 10U) << 4U) | ((__VALUE__) % 
 693:../../..\CubeG4\include/stm32g4xx_ll_rtc.h **** 
 694:../../..\CubeG4\include/stm32g4xx_ll_rtc.h **** /**
 695:../../..\CubeG4\include/stm32g4xx_ll_rtc.h ****   * @brief  Helper macro to convert a value from BCD format to 2 digit decimal format
 696:../../..\CubeG4\include/stm32g4xx_ll_rtc.h ****   * @param  __VALUE__ BCD value to be converted
 697:../../..\CubeG4\include/stm32g4xx_ll_rtc.h ****   * @retval Converted byte
 698:../../..\CubeG4\include/stm32g4xx_ll_rtc.h ****   */
 699:../../..\CubeG4\include/stm32g4xx_ll_rtc.h **** #define __LL_RTC_CONVERT_BCD2BIN(__VALUE__) ((uint8_t)((((uint8_t)((__VALUE__) & (uint8_t)0xF0U) >>
 700:../../..\CubeG4\include/stm32g4xx_ll_rtc.h **** 
 701:../../..\CubeG4\include/stm32g4xx_ll_rtc.h **** /**
 702:../../..\CubeG4\include/stm32g4xx_ll_rtc.h ****   * @}
 703:../../..\CubeG4\include/stm32g4xx_ll_rtc.h ****   */
 704:../../..\CubeG4\include/stm32g4xx_ll_rtc.h **** 
 705:../../..\CubeG4\include/stm32g4xx_ll_rtc.h **** /** @defgroup RTC_LL_EM_Date Date helper Macros
 706:../../..\CubeG4\include/stm32g4xx_ll_rtc.h ****   * @{
 707:../../..\CubeG4\include/stm32g4xx_ll_rtc.h ****   */
 708:../../..\CubeG4\include/stm32g4xx_ll_rtc.h **** 
 709:../../..\CubeG4\include/stm32g4xx_ll_rtc.h **** /**
 710:../../..\CubeG4\include/stm32g4xx_ll_rtc.h ****   * @brief  Helper macro to retrieve weekday.
 711:../../..\CubeG4\include/stm32g4xx_ll_rtc.h ****   * @param  __RTC_DATE__ Date returned by @ref  LL_RTC_DATE_Get function.
 712:../../..\CubeG4\include/stm32g4xx_ll_rtc.h ****   * @retval Returned value can be one of the following values:
 713:../../..\CubeG4\include/stm32g4xx_ll_rtc.h ****   *         @arg @ref LL_RTC_WEEKDAY_MONDAY
 714:../../..\CubeG4\include/stm32g4xx_ll_rtc.h ****   *         @arg @ref LL_RTC_WEEKDAY_TUESDAY
 715:../../..\CubeG4\include/stm32g4xx_ll_rtc.h ****   *         @arg @ref LL_RTC_WEEKDAY_WEDNESDAY
 716:../../..\CubeG4\include/stm32g4xx_ll_rtc.h ****   *         @arg @ref LL_RTC_WEEKDAY_THURSDAY
 717:../../..\CubeG4\include/stm32g4xx_ll_rtc.h ****   *         @arg @ref LL_RTC_WEEKDAY_FRIDAY
 718:../../..\CubeG4\include/stm32g4xx_ll_rtc.h ****   *         @arg @ref LL_RTC_WEEKDAY_SATURDAY
 719:../../..\CubeG4\include/stm32g4xx_ll_rtc.h ****   *         @arg @ref LL_RTC_WEEKDAY_SUNDAY
 720:../../..\CubeG4\include/stm32g4xx_ll_rtc.h ****   */
 721:../../..\CubeG4\include/stm32g4xx_ll_rtc.h **** #define __LL_RTC_GET_WEEKDAY(__RTC_DATE__) (((__RTC_DATE__) >> RTC_OFFSET_WEEKDAY) & 0x000000FFU)
 722:../../..\CubeG4\include/stm32g4xx_ll_rtc.h **** 
 723:../../..\CubeG4\include/stm32g4xx_ll_rtc.h **** /**
 724:../../..\CubeG4\include/stm32g4xx_ll_rtc.h ****   * @brief  Helper macro to retrieve Year in BCD format
 725:../../..\CubeG4\include/stm32g4xx_ll_rtc.h ****   * @param  __RTC_DATE__ Value returned by @ref  LL_RTC_DATE_Get
 726:../../..\CubeG4\include/stm32g4xx_ll_rtc.h ****   * @retval Year in BCD format (0x00 . . . 0x99)
 727:../../..\CubeG4\include/stm32g4xx_ll_rtc.h ****   */
 728:../../..\CubeG4\include/stm32g4xx_ll_rtc.h **** #define __LL_RTC_GET_YEAR(__RTC_DATE__) ((__RTC_DATE__) & 0x000000FFU)
 729:../../..\CubeG4\include/stm32g4xx_ll_rtc.h **** 
 730:../../..\CubeG4\include/stm32g4xx_ll_rtc.h **** /**
 731:../../..\CubeG4\include/stm32g4xx_ll_rtc.h ****   * @brief  Helper macro to retrieve Month in BCD format
 732:../../..\CubeG4\include/stm32g4xx_ll_rtc.h ****   * @param  __RTC_DATE__ Value returned by @ref  LL_RTC_DATE_Get
 733:../../..\CubeG4\include/stm32g4xx_ll_rtc.h ****   * @retval Returned value can be one of the following values:
 734:../../..\CubeG4\include/stm32g4xx_ll_rtc.h ****   *         @arg @ref LL_RTC_MONTH_JANUARY
 735:../../..\CubeG4\include/stm32g4xx_ll_rtc.h ****   *         @arg @ref LL_RTC_MONTH_FEBRUARY
 736:../../..\CubeG4\include/stm32g4xx_ll_rtc.h ****   *         @arg @ref LL_RTC_MONTH_MARCH
 737:../../..\CubeG4\include/stm32g4xx_ll_rtc.h ****   *         @arg @ref LL_RTC_MONTH_APRIL
 738:../../..\CubeG4\include/stm32g4xx_ll_rtc.h ****   *         @arg @ref LL_RTC_MONTH_MAY
 739:../../..\CubeG4\include/stm32g4xx_ll_rtc.h ****   *         @arg @ref LL_RTC_MONTH_JUNE
 740:../../..\CubeG4\include/stm32g4xx_ll_rtc.h ****   *         @arg @ref LL_RTC_MONTH_JULY
 741:../../..\CubeG4\include/stm32g4xx_ll_rtc.h ****   *         @arg @ref LL_RTC_MONTH_AUGUST
 742:../../..\CubeG4\include/stm32g4xx_ll_rtc.h ****   *         @arg @ref LL_RTC_MONTH_SEPTEMBER
 743:../../..\CubeG4\include/stm32g4xx_ll_rtc.h ****   *         @arg @ref LL_RTC_MONTH_OCTOBER
 744:../../..\CubeG4\include/stm32g4xx_ll_rtc.h ****   *         @arg @ref LL_RTC_MONTH_NOVEMBER
 745:../../..\CubeG4\include/stm32g4xx_ll_rtc.h ****   *         @arg @ref LL_RTC_MONTH_DECEMBER
 746:../../..\CubeG4\include/stm32g4xx_ll_rtc.h ****   */
 747:../../..\CubeG4\include/stm32g4xx_ll_rtc.h **** #define __LL_RTC_GET_MONTH(__RTC_DATE__) (((__RTC_DATE__) >>RTC_OFFSET_MONTH) & 0x000000FFU)
 748:../../..\CubeG4\include/stm32g4xx_ll_rtc.h **** 
 749:../../..\CubeG4\include/stm32g4xx_ll_rtc.h **** /**
 750:../../..\CubeG4\include/stm32g4xx_ll_rtc.h ****   * @brief  Helper macro to retrieve Day in BCD format
 751:../../..\CubeG4\include/stm32g4xx_ll_rtc.h ****   * @param  __RTC_DATE__ Value returned by @ref  LL_RTC_DATE_Get
 752:../../..\CubeG4\include/stm32g4xx_ll_rtc.h ****   * @retval Day in BCD format (0x01 . . . 0x31)
 753:../../..\CubeG4\include/stm32g4xx_ll_rtc.h ****   */
 754:../../..\CubeG4\include/stm32g4xx_ll_rtc.h **** #define __LL_RTC_GET_DAY(__RTC_DATE__) (((__RTC_DATE__) >>RTC_OFFSET_DAY) & 0x000000FFU)
 755:../../..\CubeG4\include/stm32g4xx_ll_rtc.h **** 
 756:../../..\CubeG4\include/stm32g4xx_ll_rtc.h **** /**
 757:../../..\CubeG4\include/stm32g4xx_ll_rtc.h ****   * @}
 758:../../..\CubeG4\include/stm32g4xx_ll_rtc.h ****   */
 759:../../..\CubeG4\include/stm32g4xx_ll_rtc.h **** 
 760:../../..\CubeG4\include/stm32g4xx_ll_rtc.h **** /** @defgroup RTC_LL_EM_Time Time helper Macros
 761:../../..\CubeG4\include/stm32g4xx_ll_rtc.h ****   * @{
 762:../../..\CubeG4\include/stm32g4xx_ll_rtc.h ****   */
 763:../../..\CubeG4\include/stm32g4xx_ll_rtc.h **** 
 764:../../..\CubeG4\include/stm32g4xx_ll_rtc.h **** /**
 765:../../..\CubeG4\include/stm32g4xx_ll_rtc.h ****   * @brief  Helper macro to retrieve hour in BCD format
 766:../../..\CubeG4\include/stm32g4xx_ll_rtc.h ****   * @param  __RTC_TIME__ RTC time returned by @ref LL_RTC_TIME_Get function
 767:../../..\CubeG4\include/stm32g4xx_ll_rtc.h ****   * @retval Hours in BCD format (0x01. . .0x12 or between Min_Data=0x00 and Max_Data=0x23)
 768:../../..\CubeG4\include/stm32g4xx_ll_rtc.h ****   */
 769:../../..\CubeG4\include/stm32g4xx_ll_rtc.h **** #define __LL_RTC_GET_HOUR(__RTC_TIME__) (((__RTC_TIME__) >> RTC_OFFSET_HOUR) & 0x000000FFU)
 770:../../..\CubeG4\include/stm32g4xx_ll_rtc.h **** 
 771:../../..\CubeG4\include/stm32g4xx_ll_rtc.h **** /**
 772:../../..\CubeG4\include/stm32g4xx_ll_rtc.h ****   * @brief  Helper macro to retrieve minute in BCD format
 773:../../..\CubeG4\include/stm32g4xx_ll_rtc.h ****   * @param  __RTC_TIME__ RTC time returned by @ref LL_RTC_TIME_Get function
 774:../../..\CubeG4\include/stm32g4xx_ll_rtc.h ****   * @retval Minutes in BCD format (0x00. . .0x59)
 775:../../..\CubeG4\include/stm32g4xx_ll_rtc.h ****   */
 776:../../..\CubeG4\include/stm32g4xx_ll_rtc.h **** #define __LL_RTC_GET_MINUTE(__RTC_TIME__) (((__RTC_TIME__) >> RTC_OFFSET_MINUTE) & 0x000000FFU)
 777:../../..\CubeG4\include/stm32g4xx_ll_rtc.h **** 
 778:../../..\CubeG4\include/stm32g4xx_ll_rtc.h **** /**
 779:../../..\CubeG4\include/stm32g4xx_ll_rtc.h ****   * @brief  Helper macro to retrieve second in BCD format
 780:../../..\CubeG4\include/stm32g4xx_ll_rtc.h ****   * @param  __RTC_TIME__ RTC time returned by @ref LL_RTC_TIME_Get function
 781:../../..\CubeG4\include/stm32g4xx_ll_rtc.h ****   * @retval Seconds in  format (0x00. . .0x59)
 782:../../..\CubeG4\include/stm32g4xx_ll_rtc.h ****   */
 783:../../..\CubeG4\include/stm32g4xx_ll_rtc.h **** #define __LL_RTC_GET_SECOND(__RTC_TIME__) ((__RTC_TIME__) & 0x000000FFU)
 784:../../..\CubeG4\include/stm32g4xx_ll_rtc.h **** 
 785:../../..\CubeG4\include/stm32g4xx_ll_rtc.h **** /**
 786:../../..\CubeG4\include/stm32g4xx_ll_rtc.h ****   * @}
 787:../../..\CubeG4\include/stm32g4xx_ll_rtc.h ****   */
 788:../../..\CubeG4\include/stm32g4xx_ll_rtc.h **** 
 789:../../..\CubeG4\include/stm32g4xx_ll_rtc.h **** /**
 790:../../..\CubeG4\include/stm32g4xx_ll_rtc.h ****   * @}
 791:../../..\CubeG4\include/stm32g4xx_ll_rtc.h ****   */
 792:../../..\CubeG4\include/stm32g4xx_ll_rtc.h **** 
 793:../../..\CubeG4\include/stm32g4xx_ll_rtc.h **** /* Exported functions --------------------------------------------------------*/
 794:../../..\CubeG4\include/stm32g4xx_ll_rtc.h **** /** @defgroup RTC_LL_Exported_Functions RTC Exported Functions
 795:../../..\CubeG4\include/stm32g4xx_ll_rtc.h ****   * @{
 796:../../..\CubeG4\include/stm32g4xx_ll_rtc.h ****   */
 797:../../..\CubeG4\include/stm32g4xx_ll_rtc.h **** 
 798:../../..\CubeG4\include/stm32g4xx_ll_rtc.h **** /** @defgroup RTC_LL_EF_Configuration Configuration
 799:../../..\CubeG4\include/stm32g4xx_ll_rtc.h ****   * @{
 800:../../..\CubeG4\include/stm32g4xx_ll_rtc.h ****   */
 801:../../..\CubeG4\include/stm32g4xx_ll_rtc.h **** 
 802:../../..\CubeG4\include/stm32g4xx_ll_rtc.h **** /**
 803:../../..\CubeG4\include/stm32g4xx_ll_rtc.h ****   * @brief  Set Hours format (24 hour/day or AM/PM hour format)
 804:../../..\CubeG4\include/stm32g4xx_ll_rtc.h ****   * @note   Bit is write-protected. @ref LL_RTC_DisableWriteProtection function should be called be
 805:../../..\CubeG4\include/stm32g4xx_ll_rtc.h ****   * @note   It can be written in initialization mode only (@ref LL_RTC_EnableInitMode function)
 806:../../..\CubeG4\include/stm32g4xx_ll_rtc.h ****   * @rmtoll RTC_CR           FMT           LL_RTC_SetHourFormat
 807:../../..\CubeG4\include/stm32g4xx_ll_rtc.h ****   * @param  RTCx RTC Instance
 808:../../..\CubeG4\include/stm32g4xx_ll_rtc.h ****   * @param  HourFormat This parameter can be one of the following values:
 809:../../..\CubeG4\include/stm32g4xx_ll_rtc.h ****   *         @arg @ref LL_RTC_HOURFORMAT_24HOUR
 810:../../..\CubeG4\include/stm32g4xx_ll_rtc.h ****   *         @arg @ref LL_RTC_HOURFORMAT_AMPM
 811:../../..\CubeG4\include/stm32g4xx_ll_rtc.h ****   * @retval None
 812:../../..\CubeG4\include/stm32g4xx_ll_rtc.h ****   */
 813:../../..\CubeG4\include/stm32g4xx_ll_rtc.h **** __STATIC_INLINE void LL_RTC_SetHourFormat(RTC_TypeDef *RTCx, uint32_t HourFormat)
 814:../../..\CubeG4\include/stm32g4xx_ll_rtc.h **** {
 815:../../..\CubeG4\include/stm32g4xx_ll_rtc.h ****   MODIFY_REG(RTCx->CR, RTC_CR_FMT, HourFormat);
 816:../../..\CubeG4\include/stm32g4xx_ll_rtc.h **** }
 817:../../..\CubeG4\include/stm32g4xx_ll_rtc.h **** 
 818:../../..\CubeG4\include/stm32g4xx_ll_rtc.h **** /**
 819:../../..\CubeG4\include/stm32g4xx_ll_rtc.h ****   * @brief  Get Hours format (24 hour/day or AM/PM hour format)
 820:../../..\CubeG4\include/stm32g4xx_ll_rtc.h ****   * @rmtoll RTC_CR           FMT           LL_RTC_GetHourFormat
 821:../../..\CubeG4\include/stm32g4xx_ll_rtc.h ****   * @param  RTCx RTC Instance
 822:../../..\CubeG4\include/stm32g4xx_ll_rtc.h ****   * @retval Returned value can be one of the following values:
 823:../../..\CubeG4\include/stm32g4xx_ll_rtc.h ****   *         @arg @ref LL_RTC_HOURFORMAT_24HOUR
 824:../../..\CubeG4\include/stm32g4xx_ll_rtc.h ****   *         @arg @ref LL_RTC_HOURFORMAT_AMPM
 825:../../..\CubeG4\include/stm32g4xx_ll_rtc.h ****   */
 826:../../..\CubeG4\include/stm32g4xx_ll_rtc.h **** __STATIC_INLINE uint32_t LL_RTC_GetHourFormat(RTC_TypeDef *RTCx)
 827:../../..\CubeG4\include/stm32g4xx_ll_rtc.h **** {
 828:../../..\CubeG4\include/stm32g4xx_ll_rtc.h ****   return (uint32_t)(READ_BIT(RTCx->CR, RTC_CR_FMT));
 139              		.loc 2 828 21 is_stmt 0 view .LVU31
 140 0000 8369     		ldr	r3, [r0, #24]
 141              	.LBE91:
 142              	.LBE90:
 475:../../..\CubeG4\src/stm32g4xx_ll_rtc.c ****   {
 476:../../..\CubeG4\src/stm32g4xx_ll_rtc.c ****     /* initialize the AlarmTime for Binary format */
 477:../../..\CubeG4\src/stm32g4xx_ll_rtc.c ****     if (LL_RTC_GetHourFormat(RTCx) != LL_RTC_HOURFORMAT_24HOUR)
 143              		.loc 1 477 5 is_stmt 1 view .LVU32
 144              	.LVL4:
 145              	.LBB93:
 146              	.LBI90:
 826:../../..\CubeG4\include/stm32g4xx_ll_rtc.h **** {
 147              		.loc 2 826 26 view .LVU33
 148              	.LBB92:
 149              		.loc 2 828 3 view .LVU34
 150              		.loc 2 828 3 is_stmt 0 view .LVU35
 151              	.LBE92:
 152              	.LBE93:
 153              		.loc 1 477 8 view .LVU36
 154 0002 5B06     		lsls	r3, r3, #25
 478:../../..\CubeG4\src/stm32g4xx_ll_rtc.c ****     {
 479:../../..\CubeG4\src/stm32g4xx_ll_rtc.c ****       assert_param(IS_LL_RTC_HOUR12(RTC_AlarmStruct->AlarmTime.Hours));
 480:../../..\CubeG4\src/stm32g4xx_ll_rtc.c ****       assert_param(IS_LL_RTC_TIME_FORMAT(RTC_AlarmStruct->AlarmTime.TimeFormat));
 481:../../..\CubeG4\src/stm32g4xx_ll_rtc.c ****     }
 482:../../..\CubeG4\src/stm32g4xx_ll_rtc.c ****     else
 483:../../..\CubeG4\src/stm32g4xx_ll_rtc.c ****     {
 484:../../..\CubeG4\src/stm32g4xx_ll_rtc.c ****       RTC_AlarmStruct->AlarmTime.TimeFormat = 0x00U;
 155              		.loc 1 484 7 is_stmt 1 view .LVU37
 467:../../..\CubeG4\src/stm32g4xx_ll_rtc.c ****   /* Check the parameters */
 156              		.loc 1 467 1 is_stmt 0 view .LVU38
 157 0004 F0B5     		push	{r4, r5, r6, r7, lr}
 158              		.cfi_def_cfa_offset 20
 159              		.cfi_offset 4, -20
 160              		.cfi_offset 5, -16
 161              		.cfi_offset 6, -12
 162              		.cfi_offset 7, -8
 163              		.cfi_offset 14, -4
 164              		.loc 1 484 45 view .LVU39
 165 0006 5CBF     		itt	pl
 166 0008 0023     		movpl	r3, #0
 167 000a 1360     		strpl	r3, [r2]
 485:../../..\CubeG4\src/stm32g4xx_ll_rtc.c ****       assert_param(IS_LL_RTC_HOUR24(RTC_AlarmStruct->AlarmTime.Hours));
 486:../../..\CubeG4\src/stm32g4xx_ll_rtc.c ****     }
 487:../../..\CubeG4\src/stm32g4xx_ll_rtc.c ****     assert_param(IS_LL_RTC_MINUTES(RTC_AlarmStruct->AlarmTime.Minutes));
 488:../../..\CubeG4\src/stm32g4xx_ll_rtc.c ****     assert_param(IS_LL_RTC_SECONDS(RTC_AlarmStruct->AlarmTime.Seconds));
 489:../../..\CubeG4\src/stm32g4xx_ll_rtc.c **** 
 490:../../..\CubeG4\src/stm32g4xx_ll_rtc.c ****     if (RTC_AlarmStruct->AlarmDateWeekDaySel == LL_RTC_ALMA_DATEWEEKDAYSEL_DATE)
 491:../../..\CubeG4\src/stm32g4xx_ll_rtc.c ****     {
 492:../../..\CubeG4\src/stm32g4xx_ll_rtc.c ****       assert_param(IS_LL_RTC_DAY(RTC_AlarmStruct->AlarmDateWeekDay));
 493:../../..\CubeG4\src/stm32g4xx_ll_rtc.c ****     }
 494:../../..\CubeG4\src/stm32g4xx_ll_rtc.c ****     else
 495:../../..\CubeG4\src/stm32g4xx_ll_rtc.c ****     {
 496:../../..\CubeG4\src/stm32g4xx_ll_rtc.c ****       assert_param(IS_LL_RTC_WEEKDAY(RTC_AlarmStruct->AlarmDateWeekDay));
 497:../../..\CubeG4\src/stm32g4xx_ll_rtc.c ****     }
 498:../../..\CubeG4\src/stm32g4xx_ll_rtc.c ****   }
 499:../../..\CubeG4\src/stm32g4xx_ll_rtc.c ****   else
 500:../../..\CubeG4\src/stm32g4xx_ll_rtc.c ****   {
 501:../../..\CubeG4\src/stm32g4xx_ll_rtc.c ****     /* initialize the AlarmTime for BCD format */
 502:../../..\CubeG4\src/stm32g4xx_ll_rtc.c ****     if (LL_RTC_GetHourFormat(RTCx) != LL_RTC_HOURFORMAT_24HOUR)
 503:../../..\CubeG4\src/stm32g4xx_ll_rtc.c ****     {
 504:../../..\CubeG4\src/stm32g4xx_ll_rtc.c ****       assert_param(IS_LL_RTC_HOUR12(__LL_RTC_CONVERT_BCD2BIN(RTC_AlarmStruct->AlarmTime.Hours)));
 505:../../..\CubeG4\src/stm32g4xx_ll_rtc.c ****       assert_param(IS_LL_RTC_TIME_FORMAT(RTC_AlarmStruct->AlarmTime.TimeFormat));
 506:../../..\CubeG4\src/stm32g4xx_ll_rtc.c ****     }
 507:../../..\CubeG4\src/stm32g4xx_ll_rtc.c ****     else
 508:../../..\CubeG4\src/stm32g4xx_ll_rtc.c ****     {
 509:../../..\CubeG4\src/stm32g4xx_ll_rtc.c ****       RTC_AlarmStruct->AlarmTime.TimeFormat = 0x00U;
 510:../../..\CubeG4\src/stm32g4xx_ll_rtc.c ****       assert_param(IS_LL_RTC_HOUR24(__LL_RTC_CONVERT_BCD2BIN(RTC_AlarmStruct->AlarmTime.Hours)));
 511:../../..\CubeG4\src/stm32g4xx_ll_rtc.c ****     }
 512:../../..\CubeG4\src/stm32g4xx_ll_rtc.c **** 
 513:../../..\CubeG4\src/stm32g4xx_ll_rtc.c ****     assert_param(IS_LL_RTC_MINUTES(__LL_RTC_CONVERT_BCD2BIN(RTC_AlarmStruct->AlarmTime.Minutes)));
 514:../../..\CubeG4\src/stm32g4xx_ll_rtc.c ****     assert_param(IS_LL_RTC_SECONDS(__LL_RTC_CONVERT_BCD2BIN(RTC_AlarmStruct->AlarmTime.Seconds)));
 515:../../..\CubeG4\src/stm32g4xx_ll_rtc.c **** 
 516:../../..\CubeG4\src/stm32g4xx_ll_rtc.c ****     if (RTC_AlarmStruct->AlarmDateWeekDaySel == LL_RTC_ALMA_DATEWEEKDAYSEL_DATE)
 517:../../..\CubeG4\src/stm32g4xx_ll_rtc.c ****     {
 518:../../..\CubeG4\src/stm32g4xx_ll_rtc.c ****       assert_param(IS_LL_RTC_DAY(__LL_RTC_CONVERT_BCD2BIN(RTC_AlarmStruct->AlarmDateWeekDay)));
 519:../../..\CubeG4\src/stm32g4xx_ll_rtc.c ****     }
 520:../../..\CubeG4\src/stm32g4xx_ll_rtc.c ****     else
 521:../../..\CubeG4\src/stm32g4xx_ll_rtc.c ****     {
 522:../../..\CubeG4\src/stm32g4xx_ll_rtc.c ****       assert_param(IS_LL_RTC_WEEKDAY(__LL_RTC_CONVERT_BCD2BIN(RTC_AlarmStruct->AlarmDateWeekDay)));
 168              		.loc 1 522 7 is_stmt 1 view .LVU40
 523:../../..\CubeG4\src/stm32g4xx_ll_rtc.c ****     }
 524:../../..\CubeG4\src/stm32g4xx_ll_rtc.c ****   }
 525:../../..\CubeG4\src/stm32g4xx_ll_rtc.c **** 
 526:../../..\CubeG4\src/stm32g4xx_ll_rtc.c ****   /* Disable the write protection for RTC registers */
 527:../../..\CubeG4\src/stm32g4xx_ll_rtc.c ****   LL_RTC_DisableWriteProtection(RTCx);
 169              		.loc 1 527 3 view .LVU41
 170              	.LVL5:
 171              	.LBB94:
 172              	.LBI94:
 829:../../..\CubeG4\include/stm32g4xx_ll_rtc.h **** }
 830:../../..\CubeG4\include/stm32g4xx_ll_rtc.h **** 
 831:../../..\CubeG4\include/stm32g4xx_ll_rtc.h **** /**
 832:../../..\CubeG4\include/stm32g4xx_ll_rtc.h ****   * @brief  Select the flag to be routed to RTC_ALARM output
 833:../../..\CubeG4\include/stm32g4xx_ll_rtc.h ****   * @note   Bit is write-protected. @ref LL_RTC_DisableWriteProtection function should be called be
 834:../../..\CubeG4\include/stm32g4xx_ll_rtc.h ****   * @rmtoll RTC_CR           OSEL          LL_RTC_SetAlarmOutEvent
 835:../../..\CubeG4\include/stm32g4xx_ll_rtc.h ****   * @param  RTCx RTC Instance
 836:../../..\CubeG4\include/stm32g4xx_ll_rtc.h ****   * @param  AlarmOutput This parameter can be one of the following values:
 837:../../..\CubeG4\include/stm32g4xx_ll_rtc.h ****   *         @arg @ref LL_RTC_ALARMOUT_DISABLE
 838:../../..\CubeG4\include/stm32g4xx_ll_rtc.h ****   *         @arg @ref LL_RTC_ALARMOUT_ALMA
 839:../../..\CubeG4\include/stm32g4xx_ll_rtc.h ****   *         @arg @ref LL_RTC_ALARMOUT_ALMB
 840:../../..\CubeG4\include/stm32g4xx_ll_rtc.h ****   *         @arg @ref LL_RTC_ALARMOUT_WAKEUP
 841:../../..\CubeG4\include/stm32g4xx_ll_rtc.h ****   * @retval None
 842:../../..\CubeG4\include/stm32g4xx_ll_rtc.h ****   */
 843:../../..\CubeG4\include/stm32g4xx_ll_rtc.h **** __STATIC_INLINE void LL_RTC_SetAlarmOutEvent(RTC_TypeDef *RTCx, uint32_t AlarmOutput)
 844:../../..\CubeG4\include/stm32g4xx_ll_rtc.h **** {
 845:../../..\CubeG4\include/stm32g4xx_ll_rtc.h ****   MODIFY_REG(RTCx->CR, RTC_CR_OSEL, AlarmOutput);
 846:../../..\CubeG4\include/stm32g4xx_ll_rtc.h **** }
 847:../../..\CubeG4\include/stm32g4xx_ll_rtc.h **** 
 848:../../..\CubeG4\include/stm32g4xx_ll_rtc.h **** /**
 849:../../..\CubeG4\include/stm32g4xx_ll_rtc.h ****   * @brief  Get the flag to be routed to RTC_ALARM output
 850:../../..\CubeG4\include/stm32g4xx_ll_rtc.h ****   * @rmtoll RTC_CR           OSEL          LL_RTC_GetAlarmOutEvent
 851:../../..\CubeG4\include/stm32g4xx_ll_rtc.h ****   * @param  RTCx RTC Instance
 852:../../..\CubeG4\include/stm32g4xx_ll_rtc.h ****   * @retval Returned value can be one of the following values:
 853:../../..\CubeG4\include/stm32g4xx_ll_rtc.h ****   *         @arg @ref LL_RTC_ALARMOUT_DISABLE
 854:../../..\CubeG4\include/stm32g4xx_ll_rtc.h ****   *         @arg @ref LL_RTC_ALARMOUT_ALMA
 855:../../..\CubeG4\include/stm32g4xx_ll_rtc.h ****   *         @arg @ref LL_RTC_ALARMOUT_ALMB
 856:../../..\CubeG4\include/stm32g4xx_ll_rtc.h ****   *         @arg @ref LL_RTC_ALARMOUT_WAKEUP
 857:../../..\CubeG4\include/stm32g4xx_ll_rtc.h ****   */
 858:../../..\CubeG4\include/stm32g4xx_ll_rtc.h **** __STATIC_INLINE uint32_t LL_RTC_GetAlarmOutEvent(RTC_TypeDef *RTCx)
 859:../../..\CubeG4\include/stm32g4xx_ll_rtc.h **** {
 860:../../..\CubeG4\include/stm32g4xx_ll_rtc.h ****   return (uint32_t)(READ_BIT(RTCx->CR, RTC_CR_OSEL));
 861:../../..\CubeG4\include/stm32g4xx_ll_rtc.h **** }
 862:../../..\CubeG4\include/stm32g4xx_ll_rtc.h **** 
 863:../../..\CubeG4\include/stm32g4xx_ll_rtc.h **** /**
 864:../../..\CubeG4\include/stm32g4xx_ll_rtc.h ****   * @brief  Set RTC_ALARM output type (ALARM in push-pull or open-drain output)
 865:../../..\CubeG4\include/stm32g4xx_ll_rtc.h ****   * @rmtoll RTC_CR           TAMPALRM_TYPE          LL_RTC_SetAlarmOutputType
 866:../../..\CubeG4\include/stm32g4xx_ll_rtc.h ****   * @param  RTCx RTC Instance
 867:../../..\CubeG4\include/stm32g4xx_ll_rtc.h ****   * @param  Output This parameter can be one of the following values:
 868:../../..\CubeG4\include/stm32g4xx_ll_rtc.h ****   *         @arg @ref LL_RTC_ALARM_OUTPUTTYPE_OPENDRAIN
 869:../../..\CubeG4\include/stm32g4xx_ll_rtc.h ****   *         @arg @ref LL_RTC_ALARM_OUTPUTTYPE_PUSHPULL
 870:../../..\CubeG4\include/stm32g4xx_ll_rtc.h ****   * @retval None
 871:../../..\CubeG4\include/stm32g4xx_ll_rtc.h ****   */
 872:../../..\CubeG4\include/stm32g4xx_ll_rtc.h **** __STATIC_INLINE void LL_RTC_SetAlarmOutputType(RTC_TypeDef *RTCx, uint32_t Output)
 873:../../..\CubeG4\include/stm32g4xx_ll_rtc.h **** {
 874:../../..\CubeG4\include/stm32g4xx_ll_rtc.h ****   MODIFY_REG(RTCx->CR, RTC_CR_TAMPALRM_TYPE, Output);
 875:../../..\CubeG4\include/stm32g4xx_ll_rtc.h **** }
 876:../../..\CubeG4\include/stm32g4xx_ll_rtc.h **** 
 877:../../..\CubeG4\include/stm32g4xx_ll_rtc.h **** /**
 878:../../..\CubeG4\include/stm32g4xx_ll_rtc.h ****   * @brief  Get RTC_ALARM output type (ALARM in push-pull or open-drain output)
 879:../../..\CubeG4\include/stm32g4xx_ll_rtc.h ****   * @rmtoll RTC_CR           TAMPALRM_TYPE          LL_RTC_SetAlarmOutputType
 880:../../..\CubeG4\include/stm32g4xx_ll_rtc.h ****   * @param  RTCx RTC Instance
 881:../../..\CubeG4\include/stm32g4xx_ll_rtc.h ****   * @retval Returned value can be one of the following values:
 882:../../..\CubeG4\include/stm32g4xx_ll_rtc.h ****   *         @arg @ref LL_RTC_ALARM_OUTPUTTYPE_OPENDRAIN
 883:../../..\CubeG4\include/stm32g4xx_ll_rtc.h ****   *         @arg @ref LL_RTC_ALARM_OUTPUTTYPE_PUSHPULL
 884:../../..\CubeG4\include/stm32g4xx_ll_rtc.h ****   */
 885:../../..\CubeG4\include/stm32g4xx_ll_rtc.h **** __STATIC_INLINE uint32_t LL_RTC_GetAlarmOutputType(RTC_TypeDef *RTCx)
 886:../../..\CubeG4\include/stm32g4xx_ll_rtc.h **** {
 887:../../..\CubeG4\include/stm32g4xx_ll_rtc.h ****   return (uint32_t)(READ_BIT(RTCx->CR, RTC_CR_TAMPALRM_TYPE));
 888:../../..\CubeG4\include/stm32g4xx_ll_rtc.h **** }
 889:../../..\CubeG4\include/stm32g4xx_ll_rtc.h **** 
 890:../../..\CubeG4\include/stm32g4xx_ll_rtc.h **** 
 891:../../..\CubeG4\include/stm32g4xx_ll_rtc.h **** /**
 892:../../..\CubeG4\include/stm32g4xx_ll_rtc.h ****   * @brief  Enable initialization mode
 893:../../..\CubeG4\include/stm32g4xx_ll_rtc.h ****   * @note   Initialization mode is used to program time and date register (RTC_TR and RTC_DR)
 894:../../..\CubeG4\include/stm32g4xx_ll_rtc.h ****   *         and prescaler register (RTC_PRER).
 895:../../..\CubeG4\include/stm32g4xx_ll_rtc.h ****   *         Counters are stopped and start counting from the new value when INIT is reset.
 896:../../..\CubeG4\include/stm32g4xx_ll_rtc.h ****   * @rmtoll RTC_ICSR          INIT          LL_RTC_EnableInitMode
 897:../../..\CubeG4\include/stm32g4xx_ll_rtc.h ****   * @param  RTCx RTC Instance
 898:../../..\CubeG4\include/stm32g4xx_ll_rtc.h ****   * @retval None
 899:../../..\CubeG4\include/stm32g4xx_ll_rtc.h ****   */
 900:../../..\CubeG4\include/stm32g4xx_ll_rtc.h **** __STATIC_INLINE void LL_RTC_EnableInitMode(RTC_TypeDef *RTCx)
 901:../../..\CubeG4\include/stm32g4xx_ll_rtc.h **** {
 902:../../..\CubeG4\include/stm32g4xx_ll_rtc.h ****   /* Set the Initialization mode */
 903:../../..\CubeG4\include/stm32g4xx_ll_rtc.h ****   WRITE_REG(RTCx->ICSR, RTC_LL_INIT_MASK);
 904:../../..\CubeG4\include/stm32g4xx_ll_rtc.h **** }
 905:../../..\CubeG4\include/stm32g4xx_ll_rtc.h **** 
 906:../../..\CubeG4\include/stm32g4xx_ll_rtc.h **** /**
 907:../../..\CubeG4\include/stm32g4xx_ll_rtc.h ****   * @brief  Disable initialization mode (Free running mode)
 908:../../..\CubeG4\include/stm32g4xx_ll_rtc.h ****   * @rmtoll RTC_ICSR          INIT          LL_RTC_DisableInitMode
 909:../../..\CubeG4\include/stm32g4xx_ll_rtc.h ****   * @param  RTCx RTC Instance
 910:../../..\CubeG4\include/stm32g4xx_ll_rtc.h ****   * @retval None
 911:../../..\CubeG4\include/stm32g4xx_ll_rtc.h ****   */
 912:../../..\CubeG4\include/stm32g4xx_ll_rtc.h **** __STATIC_INLINE void LL_RTC_DisableInitMode(RTC_TypeDef *RTCx)
 913:../../..\CubeG4\include/stm32g4xx_ll_rtc.h **** {
 914:../../..\CubeG4\include/stm32g4xx_ll_rtc.h ****   /* Exit Initialization mode */
 915:../../..\CubeG4\include/stm32g4xx_ll_rtc.h ****   WRITE_REG(RTCx->ICSR, (uint32_t)~RTC_ICSR_INIT);
 916:../../..\CubeG4\include/stm32g4xx_ll_rtc.h **** }
 917:../../..\CubeG4\include/stm32g4xx_ll_rtc.h **** 
 918:../../..\CubeG4\include/stm32g4xx_ll_rtc.h **** /**
 919:../../..\CubeG4\include/stm32g4xx_ll_rtc.h ****   * @brief  Set Output polarity (pin is low when ALRAF/ALRBF/WUTF is asserted)
 920:../../..\CubeG4\include/stm32g4xx_ll_rtc.h ****   * @note   Bit is write-protected. @ref LL_RTC_DisableWriteProtection function should be called be
 921:../../..\CubeG4\include/stm32g4xx_ll_rtc.h ****   * @rmtoll RTC_CR           POL           LL_RTC_SetOutputPolarity
 922:../../..\CubeG4\include/stm32g4xx_ll_rtc.h ****   * @param  RTCx RTC Instance
 923:../../..\CubeG4\include/stm32g4xx_ll_rtc.h ****   * @param  Polarity This parameter can be one of the following values:
 924:../../..\CubeG4\include/stm32g4xx_ll_rtc.h ****   *         @arg @ref LL_RTC_OUTPUTPOLARITY_PIN_HIGH
 925:../../..\CubeG4\include/stm32g4xx_ll_rtc.h ****   *         @arg @ref LL_RTC_OUTPUTPOLARITY_PIN_LOW
 926:../../..\CubeG4\include/stm32g4xx_ll_rtc.h ****   * @retval None
 927:../../..\CubeG4\include/stm32g4xx_ll_rtc.h ****   */
 928:../../..\CubeG4\include/stm32g4xx_ll_rtc.h **** __STATIC_INLINE void LL_RTC_SetOutputPolarity(RTC_TypeDef *RTCx, uint32_t Polarity)
 929:../../..\CubeG4\include/stm32g4xx_ll_rtc.h **** {
 930:../../..\CubeG4\include/stm32g4xx_ll_rtc.h ****   MODIFY_REG(RTCx->CR, RTC_CR_POL, Polarity);
 931:../../..\CubeG4\include/stm32g4xx_ll_rtc.h **** }
 932:../../..\CubeG4\include/stm32g4xx_ll_rtc.h **** 
 933:../../..\CubeG4\include/stm32g4xx_ll_rtc.h **** /**
 934:../../..\CubeG4\include/stm32g4xx_ll_rtc.h ****   * @brief  Get Output polarity
 935:../../..\CubeG4\include/stm32g4xx_ll_rtc.h ****   * @rmtoll RTC_CR           POL           LL_RTC_GetOutputPolarity
 936:../../..\CubeG4\include/stm32g4xx_ll_rtc.h ****   * @param  RTCx RTC Instance
 937:../../..\CubeG4\include/stm32g4xx_ll_rtc.h ****   * @retval Returned value can be one of the following values:
 938:../../..\CubeG4\include/stm32g4xx_ll_rtc.h ****   *         @arg @ref LL_RTC_OUTPUTPOLARITY_PIN_HIGH
 939:../../..\CubeG4\include/stm32g4xx_ll_rtc.h ****   *         @arg @ref LL_RTC_OUTPUTPOLARITY_PIN_LOW
 940:../../..\CubeG4\include/stm32g4xx_ll_rtc.h ****   */
 941:../../..\CubeG4\include/stm32g4xx_ll_rtc.h **** __STATIC_INLINE uint32_t LL_RTC_GetOutputPolarity(RTC_TypeDef *RTCx)
 942:../../..\CubeG4\include/stm32g4xx_ll_rtc.h **** {
 943:../../..\CubeG4\include/stm32g4xx_ll_rtc.h ****   return (uint32_t)(READ_BIT(RTCx->CR, RTC_CR_POL));
 944:../../..\CubeG4\include/stm32g4xx_ll_rtc.h **** }
 945:../../..\CubeG4\include/stm32g4xx_ll_rtc.h **** 
 946:../../..\CubeG4\include/stm32g4xx_ll_rtc.h **** /**
 947:../../..\CubeG4\include/stm32g4xx_ll_rtc.h ****   * @brief  Enable Bypass the shadow registers
 948:../../..\CubeG4\include/stm32g4xx_ll_rtc.h ****   * @note   Bit is write-protected. @ref LL_RTC_DisableWriteProtection function should be called be
 949:../../..\CubeG4\include/stm32g4xx_ll_rtc.h ****   * @rmtoll RTC_CR           BYPSHAD       LL_RTC_EnableShadowRegBypass
 950:../../..\CubeG4\include/stm32g4xx_ll_rtc.h ****   * @param  RTCx RTC Instance
 951:../../..\CubeG4\include/stm32g4xx_ll_rtc.h ****   * @retval None
 952:../../..\CubeG4\include/stm32g4xx_ll_rtc.h ****   */
 953:../../..\CubeG4\include/stm32g4xx_ll_rtc.h **** __STATIC_INLINE void LL_RTC_EnableShadowRegBypass(RTC_TypeDef *RTCx)
 954:../../..\CubeG4\include/stm32g4xx_ll_rtc.h **** {
 955:../../..\CubeG4\include/stm32g4xx_ll_rtc.h ****   SET_BIT(RTCx->CR, RTC_CR_BYPSHAD);
 956:../../..\CubeG4\include/stm32g4xx_ll_rtc.h **** }
 957:../../..\CubeG4\include/stm32g4xx_ll_rtc.h **** 
 958:../../..\CubeG4\include/stm32g4xx_ll_rtc.h **** /**
 959:../../..\CubeG4\include/stm32g4xx_ll_rtc.h ****   * @brief  Disable Bypass the shadow registers
 960:../../..\CubeG4\include/stm32g4xx_ll_rtc.h ****   * @rmtoll RTC_CR           BYPSHAD       LL_RTC_DisableShadowRegBypass
 961:../../..\CubeG4\include/stm32g4xx_ll_rtc.h ****   * @param  RTCx RTC Instance
 962:../../..\CubeG4\include/stm32g4xx_ll_rtc.h ****   * @retval None
 963:../../..\CubeG4\include/stm32g4xx_ll_rtc.h ****   */
 964:../../..\CubeG4\include/stm32g4xx_ll_rtc.h **** __STATIC_INLINE void LL_RTC_DisableShadowRegBypass(RTC_TypeDef *RTCx)
 965:../../..\CubeG4\include/stm32g4xx_ll_rtc.h **** {
 966:../../..\CubeG4\include/stm32g4xx_ll_rtc.h ****   CLEAR_BIT(RTCx->CR, RTC_CR_BYPSHAD);
 967:../../..\CubeG4\include/stm32g4xx_ll_rtc.h **** }
 968:../../..\CubeG4\include/stm32g4xx_ll_rtc.h **** 
 969:../../..\CubeG4\include/stm32g4xx_ll_rtc.h **** /**
 970:../../..\CubeG4\include/stm32g4xx_ll_rtc.h ****   * @brief  Check if Shadow registers bypass is enabled or not.
 971:../../..\CubeG4\include/stm32g4xx_ll_rtc.h ****   * @rmtoll RTC_CR           BYPSHAD       LL_RTC_IsShadowRegBypassEnabled
 972:../../..\CubeG4\include/stm32g4xx_ll_rtc.h ****   * @param  RTCx RTC Instance
 973:../../..\CubeG4\include/stm32g4xx_ll_rtc.h ****   * @retval State of bit (1 or 0).
 974:../../..\CubeG4\include/stm32g4xx_ll_rtc.h ****   */
 975:../../..\CubeG4\include/stm32g4xx_ll_rtc.h **** __STATIC_INLINE uint32_t LL_RTC_IsShadowRegBypassEnabled(RTC_TypeDef *RTCx)
 976:../../..\CubeG4\include/stm32g4xx_ll_rtc.h **** {
 977:../../..\CubeG4\include/stm32g4xx_ll_rtc.h ****   return ((READ_BIT(RTCx->CR, RTC_CR_BYPSHAD) == (RTC_CR_BYPSHAD)) ? 1U : 0U);
 978:../../..\CubeG4\include/stm32g4xx_ll_rtc.h **** }
 979:../../..\CubeG4\include/stm32g4xx_ll_rtc.h **** 
 980:../../..\CubeG4\include/stm32g4xx_ll_rtc.h **** /**
 981:../../..\CubeG4\include/stm32g4xx_ll_rtc.h ****   * @brief  Enable RTC_REFIN reference clock detection (50 or 60 Hz)
 982:../../..\CubeG4\include/stm32g4xx_ll_rtc.h ****   * @note   Bit is write-protected. @ref LL_RTC_DisableWriteProtection function should be called be
 983:../../..\CubeG4\include/stm32g4xx_ll_rtc.h ****   * @note   It can be written in initialization mode only (@ref LL_RTC_EnableInitMode function)
 984:../../..\CubeG4\include/stm32g4xx_ll_rtc.h ****   * @rmtoll RTC_CR           REFCKON       LL_RTC_EnableRefClock
 985:../../..\CubeG4\include/stm32g4xx_ll_rtc.h ****   * @param  RTCx RTC Instance
 986:../../..\CubeG4\include/stm32g4xx_ll_rtc.h ****   * @retval None
 987:../../..\CubeG4\include/stm32g4xx_ll_rtc.h ****   */
 988:../../..\CubeG4\include/stm32g4xx_ll_rtc.h **** __STATIC_INLINE void LL_RTC_EnableRefClock(RTC_TypeDef *RTCx)
 989:../../..\CubeG4\include/stm32g4xx_ll_rtc.h **** {
 990:../../..\CubeG4\include/stm32g4xx_ll_rtc.h ****   SET_BIT(RTCx->CR, RTC_CR_REFCKON);
 991:../../..\CubeG4\include/stm32g4xx_ll_rtc.h **** }
 992:../../..\CubeG4\include/stm32g4xx_ll_rtc.h **** 
 993:../../..\CubeG4\include/stm32g4xx_ll_rtc.h **** /**
 994:../../..\CubeG4\include/stm32g4xx_ll_rtc.h ****   * @brief  Disable RTC_REFIN reference clock detection (50 or 60 Hz)
 995:../../..\CubeG4\include/stm32g4xx_ll_rtc.h ****   * @note   Bit is write-protected. @ref LL_RTC_DisableWriteProtection function should be called be
 996:../../..\CubeG4\include/stm32g4xx_ll_rtc.h ****   * @note   It can be written in initialization mode only (@ref LL_RTC_EnableInitMode function)
 997:../../..\CubeG4\include/stm32g4xx_ll_rtc.h ****   * @rmtoll RTC_CR           REFCKON       LL_RTC_DisableRefClock
 998:../../..\CubeG4\include/stm32g4xx_ll_rtc.h ****   * @param  RTCx RTC Instance
 999:../../..\CubeG4\include/stm32g4xx_ll_rtc.h ****   * @retval None
1000:../../..\CubeG4\include/stm32g4xx_ll_rtc.h ****   */
1001:../../..\CubeG4\include/stm32g4xx_ll_rtc.h **** __STATIC_INLINE void LL_RTC_DisableRefClock(RTC_TypeDef *RTCx)
1002:../../..\CubeG4\include/stm32g4xx_ll_rtc.h **** {
1003:../../..\CubeG4\include/stm32g4xx_ll_rtc.h ****   CLEAR_BIT(RTCx->CR, RTC_CR_REFCKON);
1004:../../..\CubeG4\include/stm32g4xx_ll_rtc.h **** }
1005:../../..\CubeG4\include/stm32g4xx_ll_rtc.h **** 
1006:../../..\CubeG4\include/stm32g4xx_ll_rtc.h **** /**
1007:../../..\CubeG4\include/stm32g4xx_ll_rtc.h ****   * @brief  Set Asynchronous prescaler factor
1008:../../..\CubeG4\include/stm32g4xx_ll_rtc.h ****   * @rmtoll RTC_PRER         PREDIV_A      LL_RTC_SetAsynchPrescaler
1009:../../..\CubeG4\include/stm32g4xx_ll_rtc.h ****   * @param  RTCx RTC Instance
1010:../../..\CubeG4\include/stm32g4xx_ll_rtc.h ****   * @param  AsynchPrescaler Value between Min_Data = 0 and Max_Data = 0x7F
1011:../../..\CubeG4\include/stm32g4xx_ll_rtc.h ****   * @retval None
1012:../../..\CubeG4\include/stm32g4xx_ll_rtc.h ****   */
1013:../../..\CubeG4\include/stm32g4xx_ll_rtc.h **** __STATIC_INLINE void LL_RTC_SetAsynchPrescaler(RTC_TypeDef *RTCx, uint32_t AsynchPrescaler)
1014:../../..\CubeG4\include/stm32g4xx_ll_rtc.h **** {
1015:../../..\CubeG4\include/stm32g4xx_ll_rtc.h ****   MODIFY_REG(RTCx->PRER, RTC_PRER_PREDIV_A, AsynchPrescaler << RTC_PRER_PREDIV_A_Pos);
1016:../../..\CubeG4\include/stm32g4xx_ll_rtc.h **** }
1017:../../..\CubeG4\include/stm32g4xx_ll_rtc.h **** 
1018:../../..\CubeG4\include/stm32g4xx_ll_rtc.h **** /**
1019:../../..\CubeG4\include/stm32g4xx_ll_rtc.h ****   * @brief  Set Synchronous prescaler factor
1020:../../..\CubeG4\include/stm32g4xx_ll_rtc.h ****   * @rmtoll RTC_PRER         PREDIV_S      LL_RTC_SetSynchPrescaler
1021:../../..\CubeG4\include/stm32g4xx_ll_rtc.h ****   * @param  RTCx RTC Instance
1022:../../..\CubeG4\include/stm32g4xx_ll_rtc.h ****   * @param  SynchPrescaler Value between Min_Data = 0 and Max_Data = 0x7FFF
1023:../../..\CubeG4\include/stm32g4xx_ll_rtc.h ****   * @retval None
1024:../../..\CubeG4\include/stm32g4xx_ll_rtc.h ****   */
1025:../../..\CubeG4\include/stm32g4xx_ll_rtc.h **** __STATIC_INLINE void LL_RTC_SetSynchPrescaler(RTC_TypeDef *RTCx, uint32_t SynchPrescaler)
1026:../../..\CubeG4\include/stm32g4xx_ll_rtc.h **** {
1027:../../..\CubeG4\include/stm32g4xx_ll_rtc.h ****   MODIFY_REG(RTCx->PRER, RTC_PRER_PREDIV_S, SynchPrescaler);
1028:../../..\CubeG4\include/stm32g4xx_ll_rtc.h **** }
1029:../../..\CubeG4\include/stm32g4xx_ll_rtc.h **** 
1030:../../..\CubeG4\include/stm32g4xx_ll_rtc.h **** /**
1031:../../..\CubeG4\include/stm32g4xx_ll_rtc.h ****   * @brief  Get Asynchronous prescaler factor
1032:../../..\CubeG4\include/stm32g4xx_ll_rtc.h ****   * @rmtoll RTC_PRER         PREDIV_A      LL_RTC_GetAsynchPrescaler
1033:../../..\CubeG4\include/stm32g4xx_ll_rtc.h ****   * @param  RTCx RTC Instance
1034:../../..\CubeG4\include/stm32g4xx_ll_rtc.h ****   * @retval Value between Min_Data = 0 and Max_Data = 0x7F
1035:../../..\CubeG4\include/stm32g4xx_ll_rtc.h ****   */
1036:../../..\CubeG4\include/stm32g4xx_ll_rtc.h **** __STATIC_INLINE uint32_t LL_RTC_GetAsynchPrescaler(RTC_TypeDef *RTCx)
1037:../../..\CubeG4\include/stm32g4xx_ll_rtc.h **** {
1038:../../..\CubeG4\include/stm32g4xx_ll_rtc.h ****   return (uint32_t)(READ_BIT(RTCx->PRER, RTC_PRER_PREDIV_A) >> RTC_PRER_PREDIV_A_Pos);
1039:../../..\CubeG4\include/stm32g4xx_ll_rtc.h **** }
1040:../../..\CubeG4\include/stm32g4xx_ll_rtc.h **** 
1041:../../..\CubeG4\include/stm32g4xx_ll_rtc.h **** /**
1042:../../..\CubeG4\include/stm32g4xx_ll_rtc.h ****   * @brief  Get Synchronous prescaler factor
1043:../../..\CubeG4\include/stm32g4xx_ll_rtc.h ****   * @rmtoll RTC_PRER         PREDIV_S      LL_RTC_GetSynchPrescaler
1044:../../..\CubeG4\include/stm32g4xx_ll_rtc.h ****   * @param  RTCx RTC Instance
1045:../../..\CubeG4\include/stm32g4xx_ll_rtc.h ****   * @retval Value between Min_Data = 0 and Max_Data = 0x7FFF
1046:../../..\CubeG4\include/stm32g4xx_ll_rtc.h ****   */
1047:../../..\CubeG4\include/stm32g4xx_ll_rtc.h **** __STATIC_INLINE uint32_t LL_RTC_GetSynchPrescaler(RTC_TypeDef *RTCx)
1048:../../..\CubeG4\include/stm32g4xx_ll_rtc.h **** {
1049:../../..\CubeG4\include/stm32g4xx_ll_rtc.h ****   return (uint32_t)(READ_BIT(RTCx->PRER, RTC_PRER_PREDIV_S));
1050:../../..\CubeG4\include/stm32g4xx_ll_rtc.h **** }
1051:../../..\CubeG4\include/stm32g4xx_ll_rtc.h **** 
1052:../../..\CubeG4\include/stm32g4xx_ll_rtc.h **** /**
1053:../../..\CubeG4\include/stm32g4xx_ll_rtc.h ****   * @brief  Enable the write protection for RTC registers.
1054:../../..\CubeG4\include/stm32g4xx_ll_rtc.h ****   * @rmtoll RTC_WPR          KEY           LL_RTC_EnableWriteProtection
1055:../../..\CubeG4\include/stm32g4xx_ll_rtc.h ****   * @param  RTCx RTC Instance
1056:../../..\CubeG4\include/stm32g4xx_ll_rtc.h ****   * @retval None
1057:../../..\CubeG4\include/stm32g4xx_ll_rtc.h ****   */
1058:../../..\CubeG4\include/stm32g4xx_ll_rtc.h **** __STATIC_INLINE void LL_RTC_EnableWriteProtection(RTC_TypeDef *RTCx)
1059:../../..\CubeG4\include/stm32g4xx_ll_rtc.h **** {
1060:../../..\CubeG4\include/stm32g4xx_ll_rtc.h ****   WRITE_REG(RTCx->WPR, RTC_WRITE_PROTECTION_DISABLE);
1061:../../..\CubeG4\include/stm32g4xx_ll_rtc.h **** }
1062:../../..\CubeG4\include/stm32g4xx_ll_rtc.h **** 
1063:../../..\CubeG4\include/stm32g4xx_ll_rtc.h **** /**
1064:../../..\CubeG4\include/stm32g4xx_ll_rtc.h ****   * @brief  Disable the write protection for RTC registers.
1065:../../..\CubeG4\include/stm32g4xx_ll_rtc.h ****   * @rmtoll RTC_WPR          KEY           LL_RTC_DisableWriteProtection
1066:../../..\CubeG4\include/stm32g4xx_ll_rtc.h ****   * @param  RTCx RTC Instance
1067:../../..\CubeG4\include/stm32g4xx_ll_rtc.h ****   * @retval None
1068:../../..\CubeG4\include/stm32g4xx_ll_rtc.h ****   */
1069:../../..\CubeG4\include/stm32g4xx_ll_rtc.h **** __STATIC_INLINE void LL_RTC_DisableWriteProtection(RTC_TypeDef *RTCx)
 173              		.loc 2 1069 22 view .LVU42
 174              	.LBB95:
1070:../../..\CubeG4\include/stm32g4xx_ll_rtc.h **** {
1071:../../..\CubeG4\include/stm32g4xx_ll_rtc.h ****   WRITE_REG(RTCx->WPR, RTC_WRITE_PROTECTION_ENABLE_1);
 175              		.loc 2 1071 3 view .LVU43
 176 000c CA23     		movs	r3, #202
 177 000e 4362     		str	r3, [r0, #36]
1072:../../..\CubeG4\include/stm32g4xx_ll_rtc.h ****   WRITE_REG(RTCx->WPR, RTC_WRITE_PROTECTION_ENABLE_2);
 178              		.loc 2 1072 3 view .LVU44
 179 0010 5323     		movs	r3, #83
 180 0012 4362     		str	r3, [r0, #36]
 181              	.LVL6:
 182              		.loc 2 1072 3 is_stmt 0 view .LVU45
 183              	.LBE95:
 184              	.LBE94:
 528:../../..\CubeG4\src/stm32g4xx_ll_rtc.c **** 
 529:../../..\CubeG4\src/stm32g4xx_ll_rtc.c ****   /* Select weekday selection */
 530:../../..\CubeG4\src/stm32g4xx_ll_rtc.c ****   if (RTC_AlarmStruct->AlarmDateWeekDaySel == LL_RTC_ALMA_DATEWEEKDAYSEL_DATE)
 185              		.loc 1 530 3 is_stmt 1 view .LVU46
 186              		.loc 1 530 6 is_stmt 0 view .LVU47
 187 0014 D368     		ldr	r3, [r2, #12]
 188 0016 147C     		ldrb	r4, [r2, #16]	@ zero_extendqisi2
 189 0018 1768     		ldr	r7, [r2]
 190 001a 002B     		cmp	r3, #0
 191 001c 55D1     		bne	.L8
 531:../../..\CubeG4\src/stm32g4xx_ll_rtc.c ****   {
 532:../../..\CubeG4\src/stm32g4xx_ll_rtc.c ****     /* Set the date for ALARM */
 533:../../..\CubeG4\src/stm32g4xx_ll_rtc.c ****     LL_RTC_ALMA_DisableWeekday(RTCx);
 192              		.loc 1 533 5 is_stmt 1 view .LVU48
 193              	.LVL7:
 194              	.LBB96:
 195              	.LBI96:
1073:../../..\CubeG4\include/stm32g4xx_ll_rtc.h **** }
1074:../../..\CubeG4\include/stm32g4xx_ll_rtc.h **** 
1075:../../..\CubeG4\include/stm32g4xx_ll_rtc.h **** /**
1076:../../..\CubeG4\include/stm32g4xx_ll_rtc.h ****   * @brief  Enable tamper output.
1077:../../..\CubeG4\include/stm32g4xx_ll_rtc.h ****   * @note When the tamper output is enabled, all external and internal tamper flags
1078:../../..\CubeG4\include/stm32g4xx_ll_rtc.h ****   *       are ORed and routed to the TAMPALRM output.
1079:../../..\CubeG4\include/stm32g4xx_ll_rtc.h ****   * @rmtoll RTC_CR           TAMPOE       LL_RTC_EnableTamperOutput
1080:../../..\CubeG4\include/stm32g4xx_ll_rtc.h ****   * @param  RTCx RTC Instance
1081:../../..\CubeG4\include/stm32g4xx_ll_rtc.h ****   * @retval None
1082:../../..\CubeG4\include/stm32g4xx_ll_rtc.h ****   */
1083:../../..\CubeG4\include/stm32g4xx_ll_rtc.h **** __STATIC_INLINE void LL_RTC_EnableTamperOutput(RTC_TypeDef *RTCx)
1084:../../..\CubeG4\include/stm32g4xx_ll_rtc.h **** {
1085:../../..\CubeG4\include/stm32g4xx_ll_rtc.h ****   SET_BIT(RTCx->CR, RTC_CR_TAMPOE);
1086:../../..\CubeG4\include/stm32g4xx_ll_rtc.h **** }
1087:../../..\CubeG4\include/stm32g4xx_ll_rtc.h **** 
1088:../../..\CubeG4\include/stm32g4xx_ll_rtc.h **** /**
1089:../../..\CubeG4\include/stm32g4xx_ll_rtc.h ****   * @brief  Disable tamper output.
1090:../../..\CubeG4\include/stm32g4xx_ll_rtc.h ****   * @rmtoll RTC_CR           TAMPOE       LL_RTC_DisableTamperOutput
1091:../../..\CubeG4\include/stm32g4xx_ll_rtc.h ****   * @param  RTCx RTC Instance
1092:../../..\CubeG4\include/stm32g4xx_ll_rtc.h ****   * @retval None
1093:../../..\CubeG4\include/stm32g4xx_ll_rtc.h ****   */
1094:../../..\CubeG4\include/stm32g4xx_ll_rtc.h **** __STATIC_INLINE void LL_RTC_DisableTamperOutput(RTC_TypeDef *RTCx)
1095:../../..\CubeG4\include/stm32g4xx_ll_rtc.h **** {
1096:../../..\CubeG4\include/stm32g4xx_ll_rtc.h ****   CLEAR_BIT(RTCx->CR, RTC_CR_TAMPOE);
1097:../../..\CubeG4\include/stm32g4xx_ll_rtc.h **** }
1098:../../..\CubeG4\include/stm32g4xx_ll_rtc.h **** 
1099:../../..\CubeG4\include/stm32g4xx_ll_rtc.h **** /**
1100:../../..\CubeG4\include/stm32g4xx_ll_rtc.h ****   * @brief  Check if tamper output is enabled or not.
1101:../../..\CubeG4\include/stm32g4xx_ll_rtc.h ****   * @rmtoll RTC_CR           TAMPOE       LL_RTC_IsTamperOutputEnabled
1102:../../..\CubeG4\include/stm32g4xx_ll_rtc.h ****   * @param  RTCx RTC Instance
1103:../../..\CubeG4\include/stm32g4xx_ll_rtc.h ****   * @retval State of bit (1 or 0).
1104:../../..\CubeG4\include/stm32g4xx_ll_rtc.h ****   */
1105:../../..\CubeG4\include/stm32g4xx_ll_rtc.h **** __STATIC_INLINE uint32_t LL_RTC_IsTamperOutputEnabled(RTC_TypeDef *RTCx)
1106:../../..\CubeG4\include/stm32g4xx_ll_rtc.h **** {
1107:../../..\CubeG4\include/stm32g4xx_ll_rtc.h ****   return ((READ_BIT(RTCx->CR, RTC_CR_TAMPOE) == (RTC_CR_TAMPOE)) ? 1U : 0U);
1108:../../..\CubeG4\include/stm32g4xx_ll_rtc.h **** }
1109:../../..\CubeG4\include/stm32g4xx_ll_rtc.h **** 
1110:../../..\CubeG4\include/stm32g4xx_ll_rtc.h **** /**
1111:../../..\CubeG4\include/stm32g4xx_ll_rtc.h ****   * @brief  Enable internal pull-up in output mode.
1112:../../..\CubeG4\include/stm32g4xx_ll_rtc.h ****   * @rmtoll RTC_CR           TAMPALRM_PU       LL_RTC_EnableAlarmPullUp
1113:../../..\CubeG4\include/stm32g4xx_ll_rtc.h ****   * @param  RTCx RTC Instance
1114:../../..\CubeG4\include/stm32g4xx_ll_rtc.h ****   * @retval None
1115:../../..\CubeG4\include/stm32g4xx_ll_rtc.h ****   */
1116:../../..\CubeG4\include/stm32g4xx_ll_rtc.h **** __STATIC_INLINE void LL_RTC_EnableAlarmPullUp(RTC_TypeDef *RTCx)
1117:../../..\CubeG4\include/stm32g4xx_ll_rtc.h **** {
1118:../../..\CubeG4\include/stm32g4xx_ll_rtc.h ****   SET_BIT(RTCx->CR, RTC_CR_TAMPALRM_PU);
1119:../../..\CubeG4\include/stm32g4xx_ll_rtc.h **** }
1120:../../..\CubeG4\include/stm32g4xx_ll_rtc.h **** 
1121:../../..\CubeG4\include/stm32g4xx_ll_rtc.h **** /**
1122:../../..\CubeG4\include/stm32g4xx_ll_rtc.h ****   * @brief  Disable internal pull-up in output mode.
1123:../../..\CubeG4\include/stm32g4xx_ll_rtc.h ****   * @rmtoll RTC_CR           TAMPALRM_PU       LL_RTC_EnableAlarmPullUp
1124:../../..\CubeG4\include/stm32g4xx_ll_rtc.h ****   * @param  RTCx RTC Instance
1125:../../..\CubeG4\include/stm32g4xx_ll_rtc.h ****   * @retval None
1126:../../..\CubeG4\include/stm32g4xx_ll_rtc.h ****   */
1127:../../..\CubeG4\include/stm32g4xx_ll_rtc.h **** __STATIC_INLINE void LL_RTC_DisableAlarmPullUp(RTC_TypeDef *RTCx)
1128:../../..\CubeG4\include/stm32g4xx_ll_rtc.h **** {
1129:../../..\CubeG4\include/stm32g4xx_ll_rtc.h ****   CLEAR_BIT(RTCx->CR, RTC_CR_TAMPALRM_PU);
1130:../../..\CubeG4\include/stm32g4xx_ll_rtc.h **** }
1131:../../..\CubeG4\include/stm32g4xx_ll_rtc.h **** 
1132:../../..\CubeG4\include/stm32g4xx_ll_rtc.h **** /**
1133:../../..\CubeG4\include/stm32g4xx_ll_rtc.h ****   * @brief  Check if internal pull-up in output mode is enabled or not.
1134:../../..\CubeG4\include/stm32g4xx_ll_rtc.h ****   * @rmtoll RTC_CR           TAMPALRM_PU       LL_RTC_IsAlarmPullUpEnabled
1135:../../..\CubeG4\include/stm32g4xx_ll_rtc.h ****   * @param  RTCx RTC Instance
1136:../../..\CubeG4\include/stm32g4xx_ll_rtc.h ****   * @retval State of bit (1 or 0).
1137:../../..\CubeG4\include/stm32g4xx_ll_rtc.h ****   */
1138:../../..\CubeG4\include/stm32g4xx_ll_rtc.h **** __STATIC_INLINE uint32_t LL_RTC_IsAlarmPullUpEnabled(RTC_TypeDef *RTCx)
1139:../../..\CubeG4\include/stm32g4xx_ll_rtc.h **** {
1140:../../..\CubeG4\include/stm32g4xx_ll_rtc.h ****   return ((READ_BIT(RTCx->CR, RTC_CR_TAMPALRM_PU) == (RTC_CR_TAMPALRM_PU)) ? 1U : 0U);
1141:../../..\CubeG4\include/stm32g4xx_ll_rtc.h **** }
1142:../../..\CubeG4\include/stm32g4xx_ll_rtc.h **** 
1143:../../..\CubeG4\include/stm32g4xx_ll_rtc.h **** /**
1144:../../..\CubeG4\include/stm32g4xx_ll_rtc.h ****   * @brief  Enable RTC_OUT2 output
1145:../../..\CubeG4\include/stm32g4xx_ll_rtc.h ****   * @note RTC_OUT2 mapping depends on both OSEL (@ref LL_RTC_SetAlarmOutEvent)
1146:../../..\CubeG4\include/stm32g4xx_ll_rtc.h ****   *       and COE (@ref LL_RTC_CAL_SetOutputFreq) settings.
1147:../../..\CubeG4\include/stm32g4xx_ll_rtc.h ****   * @note RTC_OUT2 is not available ins VBAT mode.
1148:../../..\CubeG4\include/stm32g4xx_ll_rtc.h ****   * @rmtoll RTC_CR           OUT2EN       LL_RTC_EnableOutput2
1149:../../..\CubeG4\include/stm32g4xx_ll_rtc.h ****   * @param  RTCx RTC Instance
1150:../../..\CubeG4\include/stm32g4xx_ll_rtc.h ****   * @retval None
1151:../../..\CubeG4\include/stm32g4xx_ll_rtc.h ****   */
1152:../../..\CubeG4\include/stm32g4xx_ll_rtc.h **** __STATIC_INLINE void LL_RTC_EnableOutput2(RTC_TypeDef *RTCx)
1153:../../..\CubeG4\include/stm32g4xx_ll_rtc.h **** {
1154:../../..\CubeG4\include/stm32g4xx_ll_rtc.h ****   SET_BIT(RTCx->CR, RTC_CR_OUT2EN);
1155:../../..\CubeG4\include/stm32g4xx_ll_rtc.h **** }
1156:../../..\CubeG4\include/stm32g4xx_ll_rtc.h **** 
1157:../../..\CubeG4\include/stm32g4xx_ll_rtc.h **** /**
1158:../../..\CubeG4\include/stm32g4xx_ll_rtc.h ****   * @brief  Disable RTC_OUT2 output
1159:../../..\CubeG4\include/stm32g4xx_ll_rtc.h ****   * @rmtoll RTC_CR           OUT2EN       LL_RTC_DisableOutput2
1160:../../..\CubeG4\include/stm32g4xx_ll_rtc.h ****   * @param  RTCx RTC Instance
1161:../../..\CubeG4\include/stm32g4xx_ll_rtc.h ****   * @retval None
1162:../../..\CubeG4\include/stm32g4xx_ll_rtc.h ****   */
1163:../../..\CubeG4\include/stm32g4xx_ll_rtc.h **** __STATIC_INLINE void LL_RTC_DisableOutput2(RTC_TypeDef *RTCx)
1164:../../..\CubeG4\include/stm32g4xx_ll_rtc.h **** {
1165:../../..\CubeG4\include/stm32g4xx_ll_rtc.h ****   CLEAR_BIT(RTCx->CR, RTC_CR_OUT2EN);
1166:../../..\CubeG4\include/stm32g4xx_ll_rtc.h **** }
1167:../../..\CubeG4\include/stm32g4xx_ll_rtc.h **** 
1168:../../..\CubeG4\include/stm32g4xx_ll_rtc.h **** /**
1169:../../..\CubeG4\include/stm32g4xx_ll_rtc.h ****   * @brief  Check if RTC_OUT2 output is enabled or not.
1170:../../..\CubeG4\include/stm32g4xx_ll_rtc.h ****   * @rmtoll RTC_CR           OUT2EN       LL_RTC_IsOutput2Enabled
1171:../../..\CubeG4\include/stm32g4xx_ll_rtc.h ****   * @param  RTCx RTC Instance
1172:../../..\CubeG4\include/stm32g4xx_ll_rtc.h ****   * @retval State of bit (1 or 0).
1173:../../..\CubeG4\include/stm32g4xx_ll_rtc.h ****   */
1174:../../..\CubeG4\include/stm32g4xx_ll_rtc.h **** __STATIC_INLINE uint32_t LL_RTC_IsOutput2Enabled(RTC_TypeDef *RTCx)
1175:../../..\CubeG4\include/stm32g4xx_ll_rtc.h **** {
1176:../../..\CubeG4\include/stm32g4xx_ll_rtc.h ****   return ((READ_BIT(RTCx->CR, RTC_CR_OUT2EN) == (RTC_CR_OUT2EN)) ? 1U : 0U);
1177:../../..\CubeG4\include/stm32g4xx_ll_rtc.h **** }
1178:../../..\CubeG4\include/stm32g4xx_ll_rtc.h **** 
1179:../../..\CubeG4\include/stm32g4xx_ll_rtc.h **** /**
1180:../../..\CubeG4\include/stm32g4xx_ll_rtc.h ****   * @}
1181:../../..\CubeG4\include/stm32g4xx_ll_rtc.h ****   */
1182:../../..\CubeG4\include/stm32g4xx_ll_rtc.h **** 
1183:../../..\CubeG4\include/stm32g4xx_ll_rtc.h **** /** @defgroup RTC_LL_EF_Time Time
1184:../../..\CubeG4\include/stm32g4xx_ll_rtc.h ****   * @{
1185:../../..\CubeG4\include/stm32g4xx_ll_rtc.h ****   */
1186:../../..\CubeG4\include/stm32g4xx_ll_rtc.h **** 
1187:../../..\CubeG4\include/stm32g4xx_ll_rtc.h **** /**
1188:../../..\CubeG4\include/stm32g4xx_ll_rtc.h ****   * @brief  Set time format (AM/24-hour or PM notation)
1189:../../..\CubeG4\include/stm32g4xx_ll_rtc.h ****   * @note   Bit is write-protected. @ref LL_RTC_DisableWriteProtection function should be called be
1190:../../..\CubeG4\include/stm32g4xx_ll_rtc.h ****   * @note   It can be written in initialization mode only (@ref LL_RTC_EnableInitMode function)
1191:../../..\CubeG4\include/stm32g4xx_ll_rtc.h ****   * @rmtoll RTC_TR           PM            LL_RTC_TIME_SetFormat
1192:../../..\CubeG4\include/stm32g4xx_ll_rtc.h ****   * @param  RTCx RTC Instance
1193:../../..\CubeG4\include/stm32g4xx_ll_rtc.h ****   * @param  TimeFormat This parameter can be one of the following values:
1194:../../..\CubeG4\include/stm32g4xx_ll_rtc.h ****   *         @arg @ref LL_RTC_TIME_FORMAT_AM_OR_24
1195:../../..\CubeG4\include/stm32g4xx_ll_rtc.h ****   *         @arg @ref LL_RTC_TIME_FORMAT_PM
1196:../../..\CubeG4\include/stm32g4xx_ll_rtc.h ****   * @retval None
1197:../../..\CubeG4\include/stm32g4xx_ll_rtc.h ****   */
1198:../../..\CubeG4\include/stm32g4xx_ll_rtc.h **** __STATIC_INLINE void LL_RTC_TIME_SetFormat(RTC_TypeDef *RTCx, uint32_t TimeFormat)
1199:../../..\CubeG4\include/stm32g4xx_ll_rtc.h **** {
1200:../../..\CubeG4\include/stm32g4xx_ll_rtc.h ****   MODIFY_REG(RTCx->TR, RTC_TR_PM, TimeFormat);
1201:../../..\CubeG4\include/stm32g4xx_ll_rtc.h **** }
1202:../../..\CubeG4\include/stm32g4xx_ll_rtc.h **** 
1203:../../..\CubeG4\include/stm32g4xx_ll_rtc.h **** /**
1204:../../..\CubeG4\include/stm32g4xx_ll_rtc.h ****   * @brief  Get time format (AM or PM notation)
1205:../../..\CubeG4\include/stm32g4xx_ll_rtc.h ****   * @note if shadow mode is disabled (BYPSHAD=0), need to check if RSF flag is set
1206:../../..\CubeG4\include/stm32g4xx_ll_rtc.h ****   *       before reading this bit
1207:../../..\CubeG4\include/stm32g4xx_ll_rtc.h ****   * @note Read either RTC_SSR or RTC_TR locks the values in the higher-order calendar
1208:../../..\CubeG4\include/stm32g4xx_ll_rtc.h ****   *       shadow registers until RTC_DR is read (LL_RTC_ReadReg(RTC, DR)).
1209:../../..\CubeG4\include/stm32g4xx_ll_rtc.h ****   * @rmtoll RTC_TR           PM            LL_RTC_TIME_GetFormat
1210:../../..\CubeG4\include/stm32g4xx_ll_rtc.h ****   * @param  RTCx RTC Instance
1211:../../..\CubeG4\include/stm32g4xx_ll_rtc.h ****   * @retval Returned value can be one of the following values:
1212:../../..\CubeG4\include/stm32g4xx_ll_rtc.h ****   *         @arg @ref LL_RTC_TIME_FORMAT_AM_OR_24
1213:../../..\CubeG4\include/stm32g4xx_ll_rtc.h ****   *         @arg @ref LL_RTC_TIME_FORMAT_PM
1214:../../..\CubeG4\include/stm32g4xx_ll_rtc.h ****   */
1215:../../..\CubeG4\include/stm32g4xx_ll_rtc.h **** __STATIC_INLINE uint32_t LL_RTC_TIME_GetFormat(RTC_TypeDef *RTCx)
1216:../../..\CubeG4\include/stm32g4xx_ll_rtc.h **** {
1217:../../..\CubeG4\include/stm32g4xx_ll_rtc.h ****   return (uint32_t)(READ_BIT(RTCx->TR, RTC_TR_PM));
1218:../../..\CubeG4\include/stm32g4xx_ll_rtc.h **** }
1219:../../..\CubeG4\include/stm32g4xx_ll_rtc.h **** 
1220:../../..\CubeG4\include/stm32g4xx_ll_rtc.h **** /**
1221:../../..\CubeG4\include/stm32g4xx_ll_rtc.h ****   * @brief  Set Hours in BCD format
1222:../../..\CubeG4\include/stm32g4xx_ll_rtc.h ****   * @note   Bit is write-protected. @ref LL_RTC_DisableWriteProtection function should be called be
1223:../../..\CubeG4\include/stm32g4xx_ll_rtc.h ****   * @note   It can be written in initialization mode only (@ref LL_RTC_EnableInitMode function)
1224:../../..\CubeG4\include/stm32g4xx_ll_rtc.h ****   * @note helper macro __LL_RTC_CONVERT_BIN2BCD is available to convert hour from binary to BCD for
1225:../../..\CubeG4\include/stm32g4xx_ll_rtc.h ****   * @rmtoll RTC_TR           HT            LL_RTC_TIME_SetHour\n
1226:../../..\CubeG4\include/stm32g4xx_ll_rtc.h ****   *         RTC_TR           HU            LL_RTC_TIME_SetHour
1227:../../..\CubeG4\include/stm32g4xx_ll_rtc.h ****   * @param  RTCx RTC Instance
1228:../../..\CubeG4\include/stm32g4xx_ll_rtc.h ****   * @param  Hours Value between Min_Data=0x01 and Max_Data=0x12 or between Min_Data=0x00 and Max_Da
1229:../../..\CubeG4\include/stm32g4xx_ll_rtc.h ****   * @retval None
1230:../../..\CubeG4\include/stm32g4xx_ll_rtc.h ****   */
1231:../../..\CubeG4\include/stm32g4xx_ll_rtc.h **** __STATIC_INLINE void LL_RTC_TIME_SetHour(RTC_TypeDef *RTCx, uint32_t Hours)
1232:../../..\CubeG4\include/stm32g4xx_ll_rtc.h **** {
1233:../../..\CubeG4\include/stm32g4xx_ll_rtc.h ****   MODIFY_REG(RTCx->TR, (RTC_TR_HT | RTC_TR_HU),
1234:../../..\CubeG4\include/stm32g4xx_ll_rtc.h ****              (((Hours & 0xF0U) << (RTC_TR_HT_Pos - 4U)) | ((Hours & 0x0FU) << RTC_TR_HU_Pos)));
1235:../../..\CubeG4\include/stm32g4xx_ll_rtc.h **** }
1236:../../..\CubeG4\include/stm32g4xx_ll_rtc.h **** 
1237:../../..\CubeG4\include/stm32g4xx_ll_rtc.h **** /**
1238:../../..\CubeG4\include/stm32g4xx_ll_rtc.h ****   * @brief  Get Hours in BCD format
1239:../../..\CubeG4\include/stm32g4xx_ll_rtc.h ****   * @note if shadow mode is disabled (BYPSHAD=0), need to check if RSF flag is set
1240:../../..\CubeG4\include/stm32g4xx_ll_rtc.h ****   *       before reading this bit
1241:../../..\CubeG4\include/stm32g4xx_ll_rtc.h ****   * @note Read either RTC_SSR or RTC_TR locks the values in the higher-order calendar
1242:../../..\CubeG4\include/stm32g4xx_ll_rtc.h ****   *       shadow registers until RTC_DR is read (LL_RTC_ReadReg(RTC, DR)).
1243:../../..\CubeG4\include/stm32g4xx_ll_rtc.h ****   * @note helper macro __LL_RTC_CONVERT_BCD2BIN is available to convert hour from BCD to
1244:../../..\CubeG4\include/stm32g4xx_ll_rtc.h ****   *       Binary format
1245:../../..\CubeG4\include/stm32g4xx_ll_rtc.h ****   * @rmtoll RTC_TR           HT            LL_RTC_TIME_GetHour\n
1246:../../..\CubeG4\include/stm32g4xx_ll_rtc.h ****   *         RTC_TR           HU            LL_RTC_TIME_GetHour
1247:../../..\CubeG4\include/stm32g4xx_ll_rtc.h ****   * @param  RTCx RTC Instance
1248:../../..\CubeG4\include/stm32g4xx_ll_rtc.h ****   * @retval Value between Min_Data=0x01 and Max_Data=0x12 or between Min_Data=0x00 and Max_Data=0x2
1249:../../..\CubeG4\include/stm32g4xx_ll_rtc.h ****   */
1250:../../..\CubeG4\include/stm32g4xx_ll_rtc.h **** __STATIC_INLINE uint32_t LL_RTC_TIME_GetHour(RTC_TypeDef *RTCx)
1251:../../..\CubeG4\include/stm32g4xx_ll_rtc.h **** {
1252:../../..\CubeG4\include/stm32g4xx_ll_rtc.h ****   return (uint32_t)((READ_BIT(RTCx->TR, (RTC_TR_HT | RTC_TR_HU))) >> RTC_TR_HU_Pos);
1253:../../..\CubeG4\include/stm32g4xx_ll_rtc.h **** }
1254:../../..\CubeG4\include/stm32g4xx_ll_rtc.h **** 
1255:../../..\CubeG4\include/stm32g4xx_ll_rtc.h **** /**
1256:../../..\CubeG4\include/stm32g4xx_ll_rtc.h ****   * @brief  Set Minutes in BCD format
1257:../../..\CubeG4\include/stm32g4xx_ll_rtc.h ****   * @note   Bit is write-protected. @ref LL_RTC_DisableWriteProtection function should be called be
1258:../../..\CubeG4\include/stm32g4xx_ll_rtc.h ****   * @note   It can be written in initialization mode only (@ref LL_RTC_EnableInitMode function)
1259:../../..\CubeG4\include/stm32g4xx_ll_rtc.h ****   * @note helper macro __LL_RTC_CONVERT_BIN2BCD is available to convert Minutes from binary to BCD 
1260:../../..\CubeG4\include/stm32g4xx_ll_rtc.h ****   * @rmtoll RTC_TR           MNT           LL_RTC_TIME_SetMinute\n
1261:../../..\CubeG4\include/stm32g4xx_ll_rtc.h ****   *         RTC_TR           MNU           LL_RTC_TIME_SetMinute
1262:../../..\CubeG4\include/stm32g4xx_ll_rtc.h ****   * @param  RTCx RTC Instance
1263:../../..\CubeG4\include/stm32g4xx_ll_rtc.h ****   * @param  Minutes Value between Min_Data=0x00 and Max_Data=0x59
1264:../../..\CubeG4\include/stm32g4xx_ll_rtc.h ****   * @retval None
1265:../../..\CubeG4\include/stm32g4xx_ll_rtc.h ****   */
1266:../../..\CubeG4\include/stm32g4xx_ll_rtc.h **** __STATIC_INLINE void LL_RTC_TIME_SetMinute(RTC_TypeDef *RTCx, uint32_t Minutes)
1267:../../..\CubeG4\include/stm32g4xx_ll_rtc.h **** {
1268:../../..\CubeG4\include/stm32g4xx_ll_rtc.h ****   MODIFY_REG(RTCx->TR, (RTC_TR_MNT | RTC_TR_MNU),
1269:../../..\CubeG4\include/stm32g4xx_ll_rtc.h ****              (((Minutes & 0xF0U) << (RTC_TR_MNT_Pos - 4U)) | ((Minutes & 0x0FU) << RTC_TR_MNU_Pos))
1270:../../..\CubeG4\include/stm32g4xx_ll_rtc.h **** }
1271:../../..\CubeG4\include/stm32g4xx_ll_rtc.h **** 
1272:../../..\CubeG4\include/stm32g4xx_ll_rtc.h **** /**
1273:../../..\CubeG4\include/stm32g4xx_ll_rtc.h ****   * @brief  Get Minutes in BCD format
1274:../../..\CubeG4\include/stm32g4xx_ll_rtc.h ****   * @note if shadow mode is disabled (BYPSHAD=0), need to check if RSF flag is set
1275:../../..\CubeG4\include/stm32g4xx_ll_rtc.h ****   *       before reading this bit
1276:../../..\CubeG4\include/stm32g4xx_ll_rtc.h ****   * @note Read either RTC_SSR or RTC_TR locks the values in the higher-order calendar
1277:../../..\CubeG4\include/stm32g4xx_ll_rtc.h ****   *       shadow registers until RTC_DR is read (LL_RTC_ReadReg(RTC, DR)).
1278:../../..\CubeG4\include/stm32g4xx_ll_rtc.h ****   * @note helper macro __LL_RTC_CONVERT_BCD2BIN is available to convert minute from BCD
1279:../../..\CubeG4\include/stm32g4xx_ll_rtc.h ****   *       to Binary format
1280:../../..\CubeG4\include/stm32g4xx_ll_rtc.h ****   * @rmtoll RTC_TR           MNT           LL_RTC_TIME_GetMinute\n
1281:../../..\CubeG4\include/stm32g4xx_ll_rtc.h ****   *         RTC_TR           MNU           LL_RTC_TIME_GetMinute
1282:../../..\CubeG4\include/stm32g4xx_ll_rtc.h ****   * @param  RTCx RTC Instance
1283:../../..\CubeG4\include/stm32g4xx_ll_rtc.h ****   * @retval Value between Min_Data=0x00 and Max_Data=0x59
1284:../../..\CubeG4\include/stm32g4xx_ll_rtc.h ****   */
1285:../../..\CubeG4\include/stm32g4xx_ll_rtc.h **** __STATIC_INLINE uint32_t LL_RTC_TIME_GetMinute(RTC_TypeDef *RTCx)
1286:../../..\CubeG4\include/stm32g4xx_ll_rtc.h **** {
1287:../../..\CubeG4\include/stm32g4xx_ll_rtc.h ****   return (uint32_t)(READ_BIT(RTCx->TR, (RTC_TR_MNT | RTC_TR_MNU)) >> RTC_TR_MNU_Pos);
1288:../../..\CubeG4\include/stm32g4xx_ll_rtc.h **** }
1289:../../..\CubeG4\include/stm32g4xx_ll_rtc.h **** 
1290:../../..\CubeG4\include/stm32g4xx_ll_rtc.h **** /**
1291:../../..\CubeG4\include/stm32g4xx_ll_rtc.h ****   * @brief  Set Seconds in BCD format
1292:../../..\CubeG4\include/stm32g4xx_ll_rtc.h ****   * @note   Bit is write-protected. @ref LL_RTC_DisableWriteProtection function should be called be
1293:../../..\CubeG4\include/stm32g4xx_ll_rtc.h ****   * @note   It can be written in initialization mode only (@ref LL_RTC_EnableInitMode function)
1294:../../..\CubeG4\include/stm32g4xx_ll_rtc.h ****   * @note helper macro __LL_RTC_CONVERT_BIN2BCD is available to convert Seconds from binary to BCD 
1295:../../..\CubeG4\include/stm32g4xx_ll_rtc.h ****   * @rmtoll RTC_TR           ST            LL_RTC_TIME_SetSecond\n
1296:../../..\CubeG4\include/stm32g4xx_ll_rtc.h ****   *         RTC_TR           SU            LL_RTC_TIME_SetSecond
1297:../../..\CubeG4\include/stm32g4xx_ll_rtc.h ****   * @param  RTCx RTC Instance
1298:../../..\CubeG4\include/stm32g4xx_ll_rtc.h ****   * @param  Seconds Value between Min_Data=0x00 and Max_Data=0x59
1299:../../..\CubeG4\include/stm32g4xx_ll_rtc.h ****   * @retval None
1300:../../..\CubeG4\include/stm32g4xx_ll_rtc.h ****   */
1301:../../..\CubeG4\include/stm32g4xx_ll_rtc.h **** __STATIC_INLINE void LL_RTC_TIME_SetSecond(RTC_TypeDef *RTCx, uint32_t Seconds)
1302:../../..\CubeG4\include/stm32g4xx_ll_rtc.h **** {
1303:../../..\CubeG4\include/stm32g4xx_ll_rtc.h ****   MODIFY_REG(RTCx->TR, (RTC_TR_ST | RTC_TR_SU),
1304:../../..\CubeG4\include/stm32g4xx_ll_rtc.h ****              (((Seconds & 0xF0U) << (RTC_TR_ST_Pos - 4U)) | ((Seconds & 0x0FU) << RTC_TR_SU_Pos)));
1305:../../..\CubeG4\include/stm32g4xx_ll_rtc.h **** }
1306:../../..\CubeG4\include/stm32g4xx_ll_rtc.h **** 
1307:../../..\CubeG4\include/stm32g4xx_ll_rtc.h **** /**
1308:../../..\CubeG4\include/stm32g4xx_ll_rtc.h ****   * @brief  Get Seconds in BCD format
1309:../../..\CubeG4\include/stm32g4xx_ll_rtc.h ****   * @note if shadow mode is disabled (BYPSHAD=0), need to check if RSF flag is set
1310:../../..\CubeG4\include/stm32g4xx_ll_rtc.h ****   *       before reading this bit
1311:../../..\CubeG4\include/stm32g4xx_ll_rtc.h ****   * @note Read either RTC_SSR or RTC_TR locks the values in the higher-order calendar
1312:../../..\CubeG4\include/stm32g4xx_ll_rtc.h ****   *       shadow registers until RTC_DR is read (LL_RTC_ReadReg(RTC, DR)).
1313:../../..\CubeG4\include/stm32g4xx_ll_rtc.h ****   * @note helper macro __LL_RTC_CONVERT_BCD2BIN is available to convert Seconds from BCD
1314:../../..\CubeG4\include/stm32g4xx_ll_rtc.h ****   *       to Binary format
1315:../../..\CubeG4\include/stm32g4xx_ll_rtc.h ****   * @rmtoll RTC_TR           ST            LL_RTC_TIME_GetSecond\n
1316:../../..\CubeG4\include/stm32g4xx_ll_rtc.h ****   *         RTC_TR           SU            LL_RTC_TIME_GetSecond
1317:../../..\CubeG4\include/stm32g4xx_ll_rtc.h ****   * @param  RTCx RTC Instance
1318:../../..\CubeG4\include/stm32g4xx_ll_rtc.h ****   * @retval Value between Min_Data=0x00 and Max_Data=0x59
1319:../../..\CubeG4\include/stm32g4xx_ll_rtc.h ****   */
1320:../../..\CubeG4\include/stm32g4xx_ll_rtc.h **** __STATIC_INLINE uint32_t LL_RTC_TIME_GetSecond(RTC_TypeDef *RTCx)
1321:../../..\CubeG4\include/stm32g4xx_ll_rtc.h **** {
1322:../../..\CubeG4\include/stm32g4xx_ll_rtc.h ****   return (uint32_t)(READ_BIT(RTCx->TR, (RTC_TR_ST | RTC_TR_SU)) >> RTC_TR_SU_Pos);
1323:../../..\CubeG4\include/stm32g4xx_ll_rtc.h **** }
1324:../../..\CubeG4\include/stm32g4xx_ll_rtc.h **** 
1325:../../..\CubeG4\include/stm32g4xx_ll_rtc.h **** /**
1326:../../..\CubeG4\include/stm32g4xx_ll_rtc.h ****   * @brief  Set time (hour, minute and second) in BCD format
1327:../../..\CubeG4\include/stm32g4xx_ll_rtc.h ****   * @note   Bit is write-protected. @ref LL_RTC_DisableWriteProtection function should be called be
1328:../../..\CubeG4\include/stm32g4xx_ll_rtc.h ****   * @note   It can be written in initialization mode only (@ref LL_RTC_EnableInitMode function)
1329:../../..\CubeG4\include/stm32g4xx_ll_rtc.h ****   * @note TimeFormat and Hours should follow the same format
1330:../../..\CubeG4\include/stm32g4xx_ll_rtc.h ****   * @rmtoll RTC_TR           PM            LL_RTC_TIME_Config\n
1331:../../..\CubeG4\include/stm32g4xx_ll_rtc.h ****   *         RTC_TR           HT            LL_RTC_TIME_Config\n
1332:../../..\CubeG4\include/stm32g4xx_ll_rtc.h ****   *         RTC_TR           HU            LL_RTC_TIME_Config\n
1333:../../..\CubeG4\include/stm32g4xx_ll_rtc.h ****   *         RTC_TR           MNT           LL_RTC_TIME_Config\n
1334:../../..\CubeG4\include/stm32g4xx_ll_rtc.h ****   *         RTC_TR           MNU           LL_RTC_TIME_Config\n
1335:../../..\CubeG4\include/stm32g4xx_ll_rtc.h ****   *         RTC_TR           ST            LL_RTC_TIME_Config\n
1336:../../..\CubeG4\include/stm32g4xx_ll_rtc.h ****   *         RTC_TR           SU            LL_RTC_TIME_Config
1337:../../..\CubeG4\include/stm32g4xx_ll_rtc.h ****   * @param  RTCx RTC Instance
1338:../../..\CubeG4\include/stm32g4xx_ll_rtc.h ****   * @param  Format12_24 This parameter can be one of the following values:
1339:../../..\CubeG4\include/stm32g4xx_ll_rtc.h ****   *         @arg @ref LL_RTC_TIME_FORMAT_AM_OR_24
1340:../../..\CubeG4\include/stm32g4xx_ll_rtc.h ****   *         @arg @ref LL_RTC_TIME_FORMAT_PM
1341:../../..\CubeG4\include/stm32g4xx_ll_rtc.h ****   * @param  Hours Value between Min_Data=0x01 and Max_Data=0x12 or between Min_Data=0x00 and Max_Da
1342:../../..\CubeG4\include/stm32g4xx_ll_rtc.h ****   * @param  Minutes Value between Min_Data=0x00 and Max_Data=0x59
1343:../../..\CubeG4\include/stm32g4xx_ll_rtc.h ****   * @param  Seconds Value between Min_Data=0x00 and Max_Data=0x59
1344:../../..\CubeG4\include/stm32g4xx_ll_rtc.h ****   * @retval None
1345:../../..\CubeG4\include/stm32g4xx_ll_rtc.h ****   */
1346:../../..\CubeG4\include/stm32g4xx_ll_rtc.h **** __STATIC_INLINE void LL_RTC_TIME_Config(RTC_TypeDef *RTCx, uint32_t Format12_24, uint32_t Hours, ui
1347:../../..\CubeG4\include/stm32g4xx_ll_rtc.h ****                                         uint32_t Seconds)
1348:../../..\CubeG4\include/stm32g4xx_ll_rtc.h **** {
1349:../../..\CubeG4\include/stm32g4xx_ll_rtc.h ****   register uint32_t temp;
1350:../../..\CubeG4\include/stm32g4xx_ll_rtc.h **** 
1351:../../..\CubeG4\include/stm32g4xx_ll_rtc.h ****   temp = Format12_24                                                                               
1352:../../..\CubeG4\include/stm32g4xx_ll_rtc.h ****          (((Hours & 0xF0U) << (RTC_TR_HT_Pos - 4U)) | ((Hours & 0x0FU) << RTC_TR_HU_Pos))     | \
1353:../../..\CubeG4\include/stm32g4xx_ll_rtc.h ****          (((Minutes & 0xF0U) << (RTC_TR_MNT_Pos - 4U)) | ((Minutes & 0x0FU) << RTC_TR_MNU_Pos)) | \
1354:../../..\CubeG4\include/stm32g4xx_ll_rtc.h ****          (((Seconds & 0xF0U) << (RTC_TR_ST_Pos - 4U)) | ((Seconds & 0x0FU) << RTC_TR_SU_Pos));
1355:../../..\CubeG4\include/stm32g4xx_ll_rtc.h ****   MODIFY_REG(RTCx->TR, (RTC_TR_PM | RTC_TR_HT | RTC_TR_HU | RTC_TR_MNT | RTC_TR_MNU | RTC_TR_ST | R
1356:../../..\CubeG4\include/stm32g4xx_ll_rtc.h **** }
1357:../../..\CubeG4\include/stm32g4xx_ll_rtc.h **** 
1358:../../..\CubeG4\include/stm32g4xx_ll_rtc.h **** /**
1359:../../..\CubeG4\include/stm32g4xx_ll_rtc.h ****   * @brief  Get time (hour, minute and second) in BCD format
1360:../../..\CubeG4\include/stm32g4xx_ll_rtc.h ****   * @note if shadow mode is disabled (BYPSHAD=0), need to check if RSF flag is set
1361:../../..\CubeG4\include/stm32g4xx_ll_rtc.h ****   *       before reading this bit
1362:../../..\CubeG4\include/stm32g4xx_ll_rtc.h ****   * @note Read either RTC_SSR or RTC_TR locks the values in the higher-order calendar
1363:../../..\CubeG4\include/stm32g4xx_ll_rtc.h ****   *       shadow registers until RTC_DR is read (LL_RTC_ReadReg(RTC, DR)).
1364:../../..\CubeG4\include/stm32g4xx_ll_rtc.h ****   * @note helper macros __LL_RTC_GET_HOUR, __LL_RTC_GET_MINUTE and __LL_RTC_GET_SECOND
1365:../../..\CubeG4\include/stm32g4xx_ll_rtc.h ****   *       are available to get independently each parameter.
1366:../../..\CubeG4\include/stm32g4xx_ll_rtc.h ****   * @rmtoll RTC_TR           HT            LL_RTC_TIME_Get\n
1367:../../..\CubeG4\include/stm32g4xx_ll_rtc.h ****   *         RTC_TR           HU            LL_RTC_TIME_Get\n
1368:../../..\CubeG4\include/stm32g4xx_ll_rtc.h ****   *         RTC_TR           MNT           LL_RTC_TIME_Get\n
1369:../../..\CubeG4\include/stm32g4xx_ll_rtc.h ****   *         RTC_TR           MNU           LL_RTC_TIME_Get\n
1370:../../..\CubeG4\include/stm32g4xx_ll_rtc.h ****   *         RTC_TR           ST            LL_RTC_TIME_Get\n
1371:../../..\CubeG4\include/stm32g4xx_ll_rtc.h ****   *         RTC_TR           SU            LL_RTC_TIME_Get
1372:../../..\CubeG4\include/stm32g4xx_ll_rtc.h ****   * @param  RTCx RTC Instance
1373:../../..\CubeG4\include/stm32g4xx_ll_rtc.h ****   * @retval Combination of hours, minutes and seconds (Format: 0x00HHMMSS).
1374:../../..\CubeG4\include/stm32g4xx_ll_rtc.h ****   */
1375:../../..\CubeG4\include/stm32g4xx_ll_rtc.h **** __STATIC_INLINE uint32_t LL_RTC_TIME_Get(RTC_TypeDef *RTCx)
1376:../../..\CubeG4\include/stm32g4xx_ll_rtc.h **** {
1377:../../..\CubeG4\include/stm32g4xx_ll_rtc.h ****   register uint32_t temp;
1378:../../..\CubeG4\include/stm32g4xx_ll_rtc.h **** 
1379:../../..\CubeG4\include/stm32g4xx_ll_rtc.h ****   temp = READ_BIT(RTCx->TR, (RTC_TR_HT | RTC_TR_HU | RTC_TR_MNT | RTC_TR_MNU | RTC_TR_ST | RTC_TR_S
1380:../../..\CubeG4\include/stm32g4xx_ll_rtc.h ****   return (uint32_t)((((((temp & RTC_TR_HT) >> RTC_TR_HT_Pos) << 4U) | ((temp & RTC_TR_HU) >> RTC_TR
1381:../../..\CubeG4\include/stm32g4xx_ll_rtc.h ****                     (((((temp & RTC_TR_MNT) >> RTC_TR_MNT_Pos) << 4U) | ((temp & RTC_TR_MNU) >> RTC
1382:../../..\CubeG4\include/stm32g4xx_ll_rtc.h ****                     ((((temp & RTC_TR_ST) >> RTC_TR_ST_Pos) << 4U) | ((temp & RTC_TR_SU) >> RTC_TR_
1383:../../..\CubeG4\include/stm32g4xx_ll_rtc.h **** }
1384:../../..\CubeG4\include/stm32g4xx_ll_rtc.h **** 
1385:../../..\CubeG4\include/stm32g4xx_ll_rtc.h **** /**
1386:../../..\CubeG4\include/stm32g4xx_ll_rtc.h ****   * @brief  Memorize whether the daylight saving time change has been performed
1387:../../..\CubeG4\include/stm32g4xx_ll_rtc.h ****   * @note   Bit is write-protected. @ref LL_RTC_DisableWriteProtection function should be called be
1388:../../..\CubeG4\include/stm32g4xx_ll_rtc.h ****   * @rmtoll RTC_CR           BKP           LL_RTC_TIME_EnableDayLightStore
1389:../../..\CubeG4\include/stm32g4xx_ll_rtc.h ****   * @param  RTCx RTC Instance
1390:../../..\CubeG4\include/stm32g4xx_ll_rtc.h ****   * @retval None
1391:../../..\CubeG4\include/stm32g4xx_ll_rtc.h ****   */
1392:../../..\CubeG4\include/stm32g4xx_ll_rtc.h **** __STATIC_INLINE void LL_RTC_TIME_EnableDayLightStore(RTC_TypeDef *RTCx)
1393:../../..\CubeG4\include/stm32g4xx_ll_rtc.h **** {
1394:../../..\CubeG4\include/stm32g4xx_ll_rtc.h ****   SET_BIT(RTCx->CR, RTC_CR_BKP);
1395:../../..\CubeG4\include/stm32g4xx_ll_rtc.h **** }
1396:../../..\CubeG4\include/stm32g4xx_ll_rtc.h **** 
1397:../../..\CubeG4\include/stm32g4xx_ll_rtc.h **** /**
1398:../../..\CubeG4\include/stm32g4xx_ll_rtc.h ****   * @brief  Disable memorization whether the daylight saving time change has been performed.
1399:../../..\CubeG4\include/stm32g4xx_ll_rtc.h ****   * @note   Bit is write-protected. @ref LL_RTC_DisableWriteProtection function should be called be
1400:../../..\CubeG4\include/stm32g4xx_ll_rtc.h ****   * @rmtoll RTC_CR           BKP           LL_RTC_TIME_DisableDayLightStore
1401:../../..\CubeG4\include/stm32g4xx_ll_rtc.h ****   * @param  RTCx RTC Instance
1402:../../..\CubeG4\include/stm32g4xx_ll_rtc.h ****   * @retval None
1403:../../..\CubeG4\include/stm32g4xx_ll_rtc.h ****   */
1404:../../..\CubeG4\include/stm32g4xx_ll_rtc.h **** __STATIC_INLINE void LL_RTC_TIME_DisableDayLightStore(RTC_TypeDef *RTCx)
1405:../../..\CubeG4\include/stm32g4xx_ll_rtc.h **** {
1406:../../..\CubeG4\include/stm32g4xx_ll_rtc.h ****   CLEAR_BIT(RTCx->CR, RTC_CR_BKP);
1407:../../..\CubeG4\include/stm32g4xx_ll_rtc.h **** }
1408:../../..\CubeG4\include/stm32g4xx_ll_rtc.h **** 
1409:../../..\CubeG4\include/stm32g4xx_ll_rtc.h **** /**
1410:../../..\CubeG4\include/stm32g4xx_ll_rtc.h ****   * @brief  Check if RTC Day Light Saving stored operation has been enabled or not
1411:../../..\CubeG4\include/stm32g4xx_ll_rtc.h ****   * @rmtoll RTC_CR           BKP           LL_RTC_TIME_IsDayLightStoreEnabled
1412:../../..\CubeG4\include/stm32g4xx_ll_rtc.h ****   * @param  RTCx RTC Instance
1413:../../..\CubeG4\include/stm32g4xx_ll_rtc.h ****   * @retval State of bit (1 or 0).
1414:../../..\CubeG4\include/stm32g4xx_ll_rtc.h ****   */
1415:../../..\CubeG4\include/stm32g4xx_ll_rtc.h **** __STATIC_INLINE uint32_t LL_RTC_TIME_IsDayLightStoreEnabled(RTC_TypeDef *RTCx)
1416:../../..\CubeG4\include/stm32g4xx_ll_rtc.h **** {
1417:../../..\CubeG4\include/stm32g4xx_ll_rtc.h ****   return ((READ_BIT(RTCx->CR, RTC_CR_BKP) == (RTC_CR_BKP)) ? 1U : 0U);
1418:../../..\CubeG4\include/stm32g4xx_ll_rtc.h **** }
1419:../../..\CubeG4\include/stm32g4xx_ll_rtc.h **** 
1420:../../..\CubeG4\include/stm32g4xx_ll_rtc.h **** /**
1421:../../..\CubeG4\include/stm32g4xx_ll_rtc.h ****   * @brief  Subtract 1 hour (winter time change)
1422:../../..\CubeG4\include/stm32g4xx_ll_rtc.h ****   * @note   Bit is write-protected. @ref LL_RTC_DisableWriteProtection function should be called be
1423:../../..\CubeG4\include/stm32g4xx_ll_rtc.h ****   * @rmtoll RTC_CR           SUB1H         LL_RTC_TIME_DecHour
1424:../../..\CubeG4\include/stm32g4xx_ll_rtc.h ****   * @param  RTCx RTC Instance
1425:../../..\CubeG4\include/stm32g4xx_ll_rtc.h ****   * @retval None
1426:../../..\CubeG4\include/stm32g4xx_ll_rtc.h ****   */
1427:../../..\CubeG4\include/stm32g4xx_ll_rtc.h **** __STATIC_INLINE void LL_RTC_TIME_DecHour(RTC_TypeDef *RTCx)
1428:../../..\CubeG4\include/stm32g4xx_ll_rtc.h **** {
1429:../../..\CubeG4\include/stm32g4xx_ll_rtc.h ****   SET_BIT(RTCx->CR, RTC_CR_SUB1H);
1430:../../..\CubeG4\include/stm32g4xx_ll_rtc.h **** }
1431:../../..\CubeG4\include/stm32g4xx_ll_rtc.h **** 
1432:../../..\CubeG4\include/stm32g4xx_ll_rtc.h **** /**
1433:../../..\CubeG4\include/stm32g4xx_ll_rtc.h ****   * @brief  Add 1 hour (summer time change)
1434:../../..\CubeG4\include/stm32g4xx_ll_rtc.h ****   * @note   Bit is write-protected. @ref LL_RTC_DisableWriteProtection function should be called be
1435:../../..\CubeG4\include/stm32g4xx_ll_rtc.h ****   * @rmtoll RTC_CR           ADD1H         LL_RTC_TIME_IncHour
1436:../../..\CubeG4\include/stm32g4xx_ll_rtc.h ****   * @param  RTCx RTC Instance
1437:../../..\CubeG4\include/stm32g4xx_ll_rtc.h ****   * @retval None
1438:../../..\CubeG4\include/stm32g4xx_ll_rtc.h ****   */
1439:../../..\CubeG4\include/stm32g4xx_ll_rtc.h **** __STATIC_INLINE void LL_RTC_TIME_IncHour(RTC_TypeDef *RTCx)
1440:../../..\CubeG4\include/stm32g4xx_ll_rtc.h **** {
1441:../../..\CubeG4\include/stm32g4xx_ll_rtc.h ****   SET_BIT(RTCx->CR, RTC_CR_ADD1H);
1442:../../..\CubeG4\include/stm32g4xx_ll_rtc.h **** }
1443:../../..\CubeG4\include/stm32g4xx_ll_rtc.h **** 
1444:../../..\CubeG4\include/stm32g4xx_ll_rtc.h **** /**
1445:../../..\CubeG4\include/stm32g4xx_ll_rtc.h ****   * @brief  Get Sub second value in the synchronous prescaler counter.
1446:../../..\CubeG4\include/stm32g4xx_ll_rtc.h ****   * @note  You can use both SubSeconds value and SecondFraction (PREDIV_S through
1447:../../..\CubeG4\include/stm32g4xx_ll_rtc.h ****   *        LL_RTC_GetSynchPrescaler function) terms returned to convert Calendar
1448:../../..\CubeG4\include/stm32g4xx_ll_rtc.h ****   *        SubSeconds value in second fraction ratio with time unit following
1449:../../..\CubeG4\include/stm32g4xx_ll_rtc.h ****   *        generic formula:
1450:../../..\CubeG4\include/stm32g4xx_ll_rtc.h ****   *          ==> Seconds fraction ratio * time_unit= [(SecondFraction-SubSeconds)/(SecondFraction+1
1451:../../..\CubeG4\include/stm32g4xx_ll_rtc.h ****   *        This conversion can be performed only if no shift operation is pending
1452:../../..\CubeG4\include/stm32g4xx_ll_rtc.h ****   *        (ie. SHFP=0) when PREDIV_S >= SS.
1453:../../..\CubeG4\include/stm32g4xx_ll_rtc.h ****   * @rmtoll RTC_SSR          SS            LL_RTC_TIME_GetSubSecond
1454:../../..\CubeG4\include/stm32g4xx_ll_rtc.h ****   * @param  RTCx RTC Instance
1455:../../..\CubeG4\include/stm32g4xx_ll_rtc.h ****   * @retval Sub second value (number between 0 and 65535)
1456:../../..\CubeG4\include/stm32g4xx_ll_rtc.h ****   */
1457:../../..\CubeG4\include/stm32g4xx_ll_rtc.h **** __STATIC_INLINE uint32_t LL_RTC_TIME_GetSubSecond(RTC_TypeDef *RTCx)
1458:../../..\CubeG4\include/stm32g4xx_ll_rtc.h **** {
1459:../../..\CubeG4\include/stm32g4xx_ll_rtc.h ****   return (uint32_t)(READ_BIT(RTCx->SSR, RTC_SSR_SS));
1460:../../..\CubeG4\include/stm32g4xx_ll_rtc.h **** }
1461:../../..\CubeG4\include/stm32g4xx_ll_rtc.h **** 
1462:../../..\CubeG4\include/stm32g4xx_ll_rtc.h **** /**
1463:../../..\CubeG4\include/stm32g4xx_ll_rtc.h ****   * @brief  Synchronize to a remote clock with a high degree of precision.
1464:../../..\CubeG4\include/stm32g4xx_ll_rtc.h ****   * @note   This operation effectively subtracts from (delays) or advance the clock of a fraction o
1465:../../..\CubeG4\include/stm32g4xx_ll_rtc.h ****   * @note   Bit is write-protected. @ref LL_RTC_DisableWriteProtection function should be called be
1466:../../..\CubeG4\include/stm32g4xx_ll_rtc.h ****   * @note   When REFCKON is set, firmware must not write to Shift control register.
1467:../../..\CubeG4\include/stm32g4xx_ll_rtc.h ****   * @rmtoll RTC_SHIFTR       ADD1S         LL_RTC_TIME_Synchronize\n
1468:../../..\CubeG4\include/stm32g4xx_ll_rtc.h ****   *         RTC_SHIFTR       SUBFS         LL_RTC_TIME_Synchronize
1469:../../..\CubeG4\include/stm32g4xx_ll_rtc.h ****   * @param  RTCx RTC Instance
1470:../../..\CubeG4\include/stm32g4xx_ll_rtc.h ****   * @param  ShiftSecond This parameter can be one of the following values:
1471:../../..\CubeG4\include/stm32g4xx_ll_rtc.h ****   *         @arg @ref LL_RTC_SHIFT_SECOND_DELAY
1472:../../..\CubeG4\include/stm32g4xx_ll_rtc.h ****   *         @arg @ref LL_RTC_SHIFT_SECOND_ADVANCE
1473:../../..\CubeG4\include/stm32g4xx_ll_rtc.h ****   * @param  Fraction Number of Seconds Fractions (any value from 0 to 0x7FFF)
1474:../../..\CubeG4\include/stm32g4xx_ll_rtc.h ****   * @retval None
1475:../../..\CubeG4\include/stm32g4xx_ll_rtc.h ****   */
1476:../../..\CubeG4\include/stm32g4xx_ll_rtc.h **** __STATIC_INLINE void LL_RTC_TIME_Synchronize(RTC_TypeDef *RTCx, uint32_t ShiftSecond, uint32_t Frac
1477:../../..\CubeG4\include/stm32g4xx_ll_rtc.h **** {
1478:../../..\CubeG4\include/stm32g4xx_ll_rtc.h ****   WRITE_REG(RTCx->SHIFTR, (ShiftSecond | Fraction));
1479:../../..\CubeG4\include/stm32g4xx_ll_rtc.h **** }
1480:../../..\CubeG4\include/stm32g4xx_ll_rtc.h **** 
1481:../../..\CubeG4\include/stm32g4xx_ll_rtc.h **** /**
1482:../../..\CubeG4\include/stm32g4xx_ll_rtc.h ****   * @}
1483:../../..\CubeG4\include/stm32g4xx_ll_rtc.h ****   */
1484:../../..\CubeG4\include/stm32g4xx_ll_rtc.h **** 
1485:../../..\CubeG4\include/stm32g4xx_ll_rtc.h **** /** @defgroup RTC_LL_EF_Date Date
1486:../../..\CubeG4\include/stm32g4xx_ll_rtc.h ****   * @{
1487:../../..\CubeG4\include/stm32g4xx_ll_rtc.h ****   */
1488:../../..\CubeG4\include/stm32g4xx_ll_rtc.h **** 
1489:../../..\CubeG4\include/stm32g4xx_ll_rtc.h **** /**
1490:../../..\CubeG4\include/stm32g4xx_ll_rtc.h ****   * @brief  Set Year in BCD format
1491:../../..\CubeG4\include/stm32g4xx_ll_rtc.h ****   * @note helper macro __LL_RTC_CONVERT_BIN2BCD is available to convert Year from binary to BCD for
1492:../../..\CubeG4\include/stm32g4xx_ll_rtc.h ****   * @rmtoll RTC_DR           YT            LL_RTC_DATE_SetYear\n
1493:../../..\CubeG4\include/stm32g4xx_ll_rtc.h ****   *         RTC_DR           YU            LL_RTC_DATE_SetYear
1494:../../..\CubeG4\include/stm32g4xx_ll_rtc.h ****   * @param  RTCx RTC Instance
1495:../../..\CubeG4\include/stm32g4xx_ll_rtc.h ****   * @param  Year Value between Min_Data=0x00 and Max_Data=0x99
1496:../../..\CubeG4\include/stm32g4xx_ll_rtc.h ****   * @retval None
1497:../../..\CubeG4\include/stm32g4xx_ll_rtc.h ****   */
1498:../../..\CubeG4\include/stm32g4xx_ll_rtc.h **** __STATIC_INLINE void LL_RTC_DATE_SetYear(RTC_TypeDef *RTCx, uint32_t Year)
1499:../../..\CubeG4\include/stm32g4xx_ll_rtc.h **** {
1500:../../..\CubeG4\include/stm32g4xx_ll_rtc.h ****   MODIFY_REG(RTCx->DR, (RTC_DR_YT | RTC_DR_YU),
1501:../../..\CubeG4\include/stm32g4xx_ll_rtc.h ****              (((Year & 0xF0U) << (RTC_DR_YT_Pos - 4U)) | ((Year & 0x0FU) << RTC_DR_YU_Pos)));
1502:../../..\CubeG4\include/stm32g4xx_ll_rtc.h **** }
1503:../../..\CubeG4\include/stm32g4xx_ll_rtc.h **** 
1504:../../..\CubeG4\include/stm32g4xx_ll_rtc.h **** /**
1505:../../..\CubeG4\include/stm32g4xx_ll_rtc.h ****   * @brief  Get Year in BCD format
1506:../../..\CubeG4\include/stm32g4xx_ll_rtc.h ****   * @note if shadow mode is disabled (BYPSHAD=0), need to check if RSF flag is set
1507:../../..\CubeG4\include/stm32g4xx_ll_rtc.h ****   *       before reading this bit
1508:../../..\CubeG4\include/stm32g4xx_ll_rtc.h ****   * @note helper macro __LL_RTC_CONVERT_BCD2BIN is available to convert Year from BCD to Binary for
1509:../../..\CubeG4\include/stm32g4xx_ll_rtc.h ****   * @rmtoll RTC_DR           YT            LL_RTC_DATE_GetYear\n
1510:../../..\CubeG4\include/stm32g4xx_ll_rtc.h ****   *         RTC_DR           YU            LL_RTC_DATE_GetYear
1511:../../..\CubeG4\include/stm32g4xx_ll_rtc.h ****   * @param  RTCx RTC Instance
1512:../../..\CubeG4\include/stm32g4xx_ll_rtc.h ****   * @retval Value between Min_Data=0x00 and Max_Data=0x99
1513:../../..\CubeG4\include/stm32g4xx_ll_rtc.h ****   */
1514:../../..\CubeG4\include/stm32g4xx_ll_rtc.h **** __STATIC_INLINE uint32_t LL_RTC_DATE_GetYear(RTC_TypeDef *RTCx)
1515:../../..\CubeG4\include/stm32g4xx_ll_rtc.h **** {
1516:../../..\CubeG4\include/stm32g4xx_ll_rtc.h ****   return (uint32_t)((READ_BIT(RTCx->DR, (RTC_DR_YT | RTC_DR_YU))) >> RTC_DR_YU_Pos);
1517:../../..\CubeG4\include/stm32g4xx_ll_rtc.h **** }
1518:../../..\CubeG4\include/stm32g4xx_ll_rtc.h **** 
1519:../../..\CubeG4\include/stm32g4xx_ll_rtc.h **** /**
1520:../../..\CubeG4\include/stm32g4xx_ll_rtc.h ****   * @brief  Set Week day
1521:../../..\CubeG4\include/stm32g4xx_ll_rtc.h ****   * @rmtoll RTC_DR           WDU           LL_RTC_DATE_SetWeekDay
1522:../../..\CubeG4\include/stm32g4xx_ll_rtc.h ****   * @param  RTCx RTC Instance
1523:../../..\CubeG4\include/stm32g4xx_ll_rtc.h ****   * @param  WeekDay This parameter can be one of the following values:
1524:../../..\CubeG4\include/stm32g4xx_ll_rtc.h ****   *         @arg @ref LL_RTC_WEEKDAY_MONDAY
1525:../../..\CubeG4\include/stm32g4xx_ll_rtc.h ****   *         @arg @ref LL_RTC_WEEKDAY_TUESDAY
1526:../../..\CubeG4\include/stm32g4xx_ll_rtc.h ****   *         @arg @ref LL_RTC_WEEKDAY_WEDNESDAY
1527:../../..\CubeG4\include/stm32g4xx_ll_rtc.h ****   *         @arg @ref LL_RTC_WEEKDAY_THURSDAY
1528:../../..\CubeG4\include/stm32g4xx_ll_rtc.h ****   *         @arg @ref LL_RTC_WEEKDAY_FRIDAY
1529:../../..\CubeG4\include/stm32g4xx_ll_rtc.h ****   *         @arg @ref LL_RTC_WEEKDAY_SATURDAY
1530:../../..\CubeG4\include/stm32g4xx_ll_rtc.h ****   *         @arg @ref LL_RTC_WEEKDAY_SUNDAY
1531:../../..\CubeG4\include/stm32g4xx_ll_rtc.h ****   * @retval None
1532:../../..\CubeG4\include/stm32g4xx_ll_rtc.h ****   */
1533:../../..\CubeG4\include/stm32g4xx_ll_rtc.h **** __STATIC_INLINE void LL_RTC_DATE_SetWeekDay(RTC_TypeDef *RTCx, uint32_t WeekDay)
1534:../../..\CubeG4\include/stm32g4xx_ll_rtc.h **** {
1535:../../..\CubeG4\include/stm32g4xx_ll_rtc.h ****   MODIFY_REG(RTCx->DR, RTC_DR_WDU, WeekDay << RTC_DR_WDU_Pos);
1536:../../..\CubeG4\include/stm32g4xx_ll_rtc.h **** }
1537:../../..\CubeG4\include/stm32g4xx_ll_rtc.h **** 
1538:../../..\CubeG4\include/stm32g4xx_ll_rtc.h **** /**
1539:../../..\CubeG4\include/stm32g4xx_ll_rtc.h ****   * @brief  Get Week day
1540:../../..\CubeG4\include/stm32g4xx_ll_rtc.h ****   * @note if shadow mode is disabled (BYPSHAD=0), need to check if RSF flag is set
1541:../../..\CubeG4\include/stm32g4xx_ll_rtc.h ****   *       before reading this bit
1542:../../..\CubeG4\include/stm32g4xx_ll_rtc.h ****   * @rmtoll RTC_DR           WDU           LL_RTC_DATE_GetWeekDay
1543:../../..\CubeG4\include/stm32g4xx_ll_rtc.h ****   * @param  RTCx RTC Instance
1544:../../..\CubeG4\include/stm32g4xx_ll_rtc.h ****   * @retval Returned value can be one of the following values:
1545:../../..\CubeG4\include/stm32g4xx_ll_rtc.h ****   *         @arg @ref LL_RTC_WEEKDAY_MONDAY
1546:../../..\CubeG4\include/stm32g4xx_ll_rtc.h ****   *         @arg @ref LL_RTC_WEEKDAY_TUESDAY
1547:../../..\CubeG4\include/stm32g4xx_ll_rtc.h ****   *         @arg @ref LL_RTC_WEEKDAY_WEDNESDAY
1548:../../..\CubeG4\include/stm32g4xx_ll_rtc.h ****   *         @arg @ref LL_RTC_WEEKDAY_THURSDAY
1549:../../..\CubeG4\include/stm32g4xx_ll_rtc.h ****   *         @arg @ref LL_RTC_WEEKDAY_FRIDAY
1550:../../..\CubeG4\include/stm32g4xx_ll_rtc.h ****   *         @arg @ref LL_RTC_WEEKDAY_SATURDAY
1551:../../..\CubeG4\include/stm32g4xx_ll_rtc.h ****   *         @arg @ref LL_RTC_WEEKDAY_SUNDAY
1552:../../..\CubeG4\include/stm32g4xx_ll_rtc.h ****   */
1553:../../..\CubeG4\include/stm32g4xx_ll_rtc.h **** __STATIC_INLINE uint32_t LL_RTC_DATE_GetWeekDay(RTC_TypeDef *RTCx)
1554:../../..\CubeG4\include/stm32g4xx_ll_rtc.h **** {
1555:../../..\CubeG4\include/stm32g4xx_ll_rtc.h ****   return (uint32_t)(READ_BIT(RTCx->DR, RTC_DR_WDU) >> RTC_DR_WDU_Pos);
1556:../../..\CubeG4\include/stm32g4xx_ll_rtc.h **** }
1557:../../..\CubeG4\include/stm32g4xx_ll_rtc.h **** 
1558:../../..\CubeG4\include/stm32g4xx_ll_rtc.h **** /**
1559:../../..\CubeG4\include/stm32g4xx_ll_rtc.h ****   * @brief  Set Month in BCD format
1560:../../..\CubeG4\include/stm32g4xx_ll_rtc.h ****   * @note helper macro __LL_RTC_CONVERT_BIN2BCD is available to convert Month from binary to BCD fo
1561:../../..\CubeG4\include/stm32g4xx_ll_rtc.h ****   * @rmtoll RTC_DR           MT            LL_RTC_DATE_SetMonth\n
1562:../../..\CubeG4\include/stm32g4xx_ll_rtc.h ****   *         RTC_DR           MU            LL_RTC_DATE_SetMonth
1563:../../..\CubeG4\include/stm32g4xx_ll_rtc.h ****   * @param  RTCx RTC Instance
1564:../../..\CubeG4\include/stm32g4xx_ll_rtc.h ****   * @param  Month This parameter can be one of the following values:
1565:../../..\CubeG4\include/stm32g4xx_ll_rtc.h ****   *         @arg @ref LL_RTC_MONTH_JANUARY
1566:../../..\CubeG4\include/stm32g4xx_ll_rtc.h ****   *         @arg @ref LL_RTC_MONTH_FEBRUARY
1567:../../..\CubeG4\include/stm32g4xx_ll_rtc.h ****   *         @arg @ref LL_RTC_MONTH_MARCH
1568:../../..\CubeG4\include/stm32g4xx_ll_rtc.h ****   *         @arg @ref LL_RTC_MONTH_APRIL
1569:../../..\CubeG4\include/stm32g4xx_ll_rtc.h ****   *         @arg @ref LL_RTC_MONTH_MAY
1570:../../..\CubeG4\include/stm32g4xx_ll_rtc.h ****   *         @arg @ref LL_RTC_MONTH_JUNE
1571:../../..\CubeG4\include/stm32g4xx_ll_rtc.h ****   *         @arg @ref LL_RTC_MONTH_JULY
1572:../../..\CubeG4\include/stm32g4xx_ll_rtc.h ****   *         @arg @ref LL_RTC_MONTH_AUGUST
1573:../../..\CubeG4\include/stm32g4xx_ll_rtc.h ****   *         @arg @ref LL_RTC_MONTH_SEPTEMBER
1574:../../..\CubeG4\include/stm32g4xx_ll_rtc.h ****   *         @arg @ref LL_RTC_MONTH_OCTOBER
1575:../../..\CubeG4\include/stm32g4xx_ll_rtc.h ****   *         @arg @ref LL_RTC_MONTH_NOVEMBER
1576:../../..\CubeG4\include/stm32g4xx_ll_rtc.h ****   *         @arg @ref LL_RTC_MONTH_DECEMBER
1577:../../..\CubeG4\include/stm32g4xx_ll_rtc.h ****   * @retval None
1578:../../..\CubeG4\include/stm32g4xx_ll_rtc.h ****   */
1579:../../..\CubeG4\include/stm32g4xx_ll_rtc.h **** __STATIC_INLINE void LL_RTC_DATE_SetMonth(RTC_TypeDef *RTCx, uint32_t Month)
1580:../../..\CubeG4\include/stm32g4xx_ll_rtc.h **** {
1581:../../..\CubeG4\include/stm32g4xx_ll_rtc.h ****   MODIFY_REG(RTCx->DR, (RTC_DR_MT | RTC_DR_MU),
1582:../../..\CubeG4\include/stm32g4xx_ll_rtc.h ****              (((Month & 0xF0U) << (RTC_DR_MT_Pos - 4U)) | ((Month & 0x0FU) << RTC_DR_MU_Pos)));
1583:../../..\CubeG4\include/stm32g4xx_ll_rtc.h **** }
1584:../../..\CubeG4\include/stm32g4xx_ll_rtc.h **** 
1585:../../..\CubeG4\include/stm32g4xx_ll_rtc.h **** /**
1586:../../..\CubeG4\include/stm32g4xx_ll_rtc.h ****   * @brief  Get Month in BCD format
1587:../../..\CubeG4\include/stm32g4xx_ll_rtc.h ****   * @note if shadow mode is disabled (BYPSHAD=0), need to check if RSF flag is set
1588:../../..\CubeG4\include/stm32g4xx_ll_rtc.h ****   *       before reading this bit
1589:../../..\CubeG4\include/stm32g4xx_ll_rtc.h ****   * @note helper macro __LL_RTC_CONVERT_BCD2BIN is available to convert Month from BCD to Binary fo
1590:../../..\CubeG4\include/stm32g4xx_ll_rtc.h ****   * @rmtoll RTC_DR           MT            LL_RTC_DATE_GetMonth\n
1591:../../..\CubeG4\include/stm32g4xx_ll_rtc.h ****   *         RTC_DR           MU            LL_RTC_DATE_GetMonth
1592:../../..\CubeG4\include/stm32g4xx_ll_rtc.h ****   * @param  RTCx RTC Instance
1593:../../..\CubeG4\include/stm32g4xx_ll_rtc.h ****   * @retval Returned value can be one of the following values:
1594:../../..\CubeG4\include/stm32g4xx_ll_rtc.h ****   *         @arg @ref LL_RTC_MONTH_JANUARY
1595:../../..\CubeG4\include/stm32g4xx_ll_rtc.h ****   *         @arg @ref LL_RTC_MONTH_FEBRUARY
1596:../../..\CubeG4\include/stm32g4xx_ll_rtc.h ****   *         @arg @ref LL_RTC_MONTH_MARCH
1597:../../..\CubeG4\include/stm32g4xx_ll_rtc.h ****   *         @arg @ref LL_RTC_MONTH_APRIL
1598:../../..\CubeG4\include/stm32g4xx_ll_rtc.h ****   *         @arg @ref LL_RTC_MONTH_MAY
1599:../../..\CubeG4\include/stm32g4xx_ll_rtc.h ****   *         @arg @ref LL_RTC_MONTH_JUNE
1600:../../..\CubeG4\include/stm32g4xx_ll_rtc.h ****   *         @arg @ref LL_RTC_MONTH_JULY
1601:../../..\CubeG4\include/stm32g4xx_ll_rtc.h ****   *         @arg @ref LL_RTC_MONTH_AUGUST
1602:../../..\CubeG4\include/stm32g4xx_ll_rtc.h ****   *         @arg @ref LL_RTC_MONTH_SEPTEMBER
1603:../../..\CubeG4\include/stm32g4xx_ll_rtc.h ****   *         @arg @ref LL_RTC_MONTH_OCTOBER
1604:../../..\CubeG4\include/stm32g4xx_ll_rtc.h ****   *         @arg @ref LL_RTC_MONTH_NOVEMBER
1605:../../..\CubeG4\include/stm32g4xx_ll_rtc.h ****   *         @arg @ref LL_RTC_MONTH_DECEMBER
1606:../../..\CubeG4\include/stm32g4xx_ll_rtc.h ****   */
1607:../../..\CubeG4\include/stm32g4xx_ll_rtc.h **** __STATIC_INLINE uint32_t LL_RTC_DATE_GetMonth(RTC_TypeDef *RTCx)
1608:../../..\CubeG4\include/stm32g4xx_ll_rtc.h **** {
1609:../../..\CubeG4\include/stm32g4xx_ll_rtc.h ****   return (uint32_t)((READ_BIT(RTCx->DR, (RTC_DR_MT | RTC_DR_MU))) >> RTC_DR_MU_Pos);
1610:../../..\CubeG4\include/stm32g4xx_ll_rtc.h **** }
1611:../../..\CubeG4\include/stm32g4xx_ll_rtc.h **** 
1612:../../..\CubeG4\include/stm32g4xx_ll_rtc.h **** /**
1613:../../..\CubeG4\include/stm32g4xx_ll_rtc.h ****   * @brief  Set Day in BCD format
1614:../../..\CubeG4\include/stm32g4xx_ll_rtc.h ****   * @note helper macro __LL_RTC_CONVERT_BIN2BCD is available to convert Day from binary to BCD form
1615:../../..\CubeG4\include/stm32g4xx_ll_rtc.h ****   * @rmtoll RTC_DR           DT            LL_RTC_DATE_SetDay\n
1616:../../..\CubeG4\include/stm32g4xx_ll_rtc.h ****   *         RTC_DR           DU            LL_RTC_DATE_SetDay
1617:../../..\CubeG4\include/stm32g4xx_ll_rtc.h ****   * @param  RTCx RTC Instance
1618:../../..\CubeG4\include/stm32g4xx_ll_rtc.h ****   * @param  Day Value between Min_Data=0x01 and Max_Data=0x31
1619:../../..\CubeG4\include/stm32g4xx_ll_rtc.h ****   * @retval None
1620:../../..\CubeG4\include/stm32g4xx_ll_rtc.h ****   */
1621:../../..\CubeG4\include/stm32g4xx_ll_rtc.h **** __STATIC_INLINE void LL_RTC_DATE_SetDay(RTC_TypeDef *RTCx, uint32_t Day)
1622:../../..\CubeG4\include/stm32g4xx_ll_rtc.h **** {
1623:../../..\CubeG4\include/stm32g4xx_ll_rtc.h ****   MODIFY_REG(RTCx->DR, (RTC_DR_DT | RTC_DR_DU),
1624:../../..\CubeG4\include/stm32g4xx_ll_rtc.h ****              (((Day & 0xF0U) << (RTC_DR_DT_Pos - 4U)) | ((Day & 0x0FU) << RTC_DR_DU_Pos)));
1625:../../..\CubeG4\include/stm32g4xx_ll_rtc.h **** }
1626:../../..\CubeG4\include/stm32g4xx_ll_rtc.h **** 
1627:../../..\CubeG4\include/stm32g4xx_ll_rtc.h **** /**
1628:../../..\CubeG4\include/stm32g4xx_ll_rtc.h ****   * @brief  Get Day in BCD format
1629:../../..\CubeG4\include/stm32g4xx_ll_rtc.h ****   * @note if shadow mode is disabled (BYPSHAD=0), need to check if RSF flag is set
1630:../../..\CubeG4\include/stm32g4xx_ll_rtc.h ****   *       before reading this bit
1631:../../..\CubeG4\include/stm32g4xx_ll_rtc.h ****   * @note helper macro __LL_RTC_CONVERT_BCD2BIN is available to convert Day from BCD to Binary form
1632:../../..\CubeG4\include/stm32g4xx_ll_rtc.h ****   * @rmtoll RTC_DR           DT            LL_RTC_DATE_GetDay\n
1633:../../..\CubeG4\include/stm32g4xx_ll_rtc.h ****   *         RTC_DR           DU            LL_RTC_DATE_GetDay
1634:../../..\CubeG4\include/stm32g4xx_ll_rtc.h ****   * @param  RTCx RTC Instance
1635:../../..\CubeG4\include/stm32g4xx_ll_rtc.h ****   * @retval Value between Min_Data=0x01 and Max_Data=0x31
1636:../../..\CubeG4\include/stm32g4xx_ll_rtc.h ****   */
1637:../../..\CubeG4\include/stm32g4xx_ll_rtc.h **** __STATIC_INLINE uint32_t LL_RTC_DATE_GetDay(RTC_TypeDef *RTCx)
1638:../../..\CubeG4\include/stm32g4xx_ll_rtc.h **** {
1639:../../..\CubeG4\include/stm32g4xx_ll_rtc.h ****   return (uint32_t)((READ_BIT(RTCx->DR, (RTC_DR_DT | RTC_DR_DU))) >> RTC_DR_DU_Pos);
1640:../../..\CubeG4\include/stm32g4xx_ll_rtc.h **** }
1641:../../..\CubeG4\include/stm32g4xx_ll_rtc.h **** 
1642:../../..\CubeG4\include/stm32g4xx_ll_rtc.h **** /**
1643:../../..\CubeG4\include/stm32g4xx_ll_rtc.h ****   * @brief  Set date (WeekDay, Day, Month and Year) in BCD format
1644:../../..\CubeG4\include/stm32g4xx_ll_rtc.h ****   * @rmtoll RTC_DR           WDU           LL_RTC_DATE_Config\n
1645:../../..\CubeG4\include/stm32g4xx_ll_rtc.h ****   *         RTC_DR           MT            LL_RTC_DATE_Config\n
1646:../../..\CubeG4\include/stm32g4xx_ll_rtc.h ****   *         RTC_DR           MU            LL_RTC_DATE_Config\n
1647:../../..\CubeG4\include/stm32g4xx_ll_rtc.h ****   *         RTC_DR           DT            LL_RTC_DATE_Config\n
1648:../../..\CubeG4\include/stm32g4xx_ll_rtc.h ****   *         RTC_DR           DU            LL_RTC_DATE_Config\n
1649:../../..\CubeG4\include/stm32g4xx_ll_rtc.h ****   *         RTC_DR           YT            LL_RTC_DATE_Config\n
1650:../../..\CubeG4\include/stm32g4xx_ll_rtc.h ****   *         RTC_DR           YU            LL_RTC_DATE_Config
1651:../../..\CubeG4\include/stm32g4xx_ll_rtc.h ****   * @param  RTCx RTC Instance
1652:../../..\CubeG4\include/stm32g4xx_ll_rtc.h ****   * @param  WeekDay This parameter can be one of the following values:
1653:../../..\CubeG4\include/stm32g4xx_ll_rtc.h ****   *         @arg @ref LL_RTC_WEEKDAY_MONDAY
1654:../../..\CubeG4\include/stm32g4xx_ll_rtc.h ****   *         @arg @ref LL_RTC_WEEKDAY_TUESDAY
1655:../../..\CubeG4\include/stm32g4xx_ll_rtc.h ****   *         @arg @ref LL_RTC_WEEKDAY_WEDNESDAY
1656:../../..\CubeG4\include/stm32g4xx_ll_rtc.h ****   *         @arg @ref LL_RTC_WEEKDAY_THURSDAY
1657:../../..\CubeG4\include/stm32g4xx_ll_rtc.h ****   *         @arg @ref LL_RTC_WEEKDAY_FRIDAY
1658:../../..\CubeG4\include/stm32g4xx_ll_rtc.h ****   *         @arg @ref LL_RTC_WEEKDAY_SATURDAY
1659:../../..\CubeG4\include/stm32g4xx_ll_rtc.h ****   *         @arg @ref LL_RTC_WEEKDAY_SUNDAY
1660:../../..\CubeG4\include/stm32g4xx_ll_rtc.h ****   * @param  Day Value between Min_Data=0x01 and Max_Data=0x31
1661:../../..\CubeG4\include/stm32g4xx_ll_rtc.h ****   * @param  Month This parameter can be one of the following values:
1662:../../..\CubeG4\include/stm32g4xx_ll_rtc.h ****   *         @arg @ref LL_RTC_MONTH_JANUARY
1663:../../..\CubeG4\include/stm32g4xx_ll_rtc.h ****   *         @arg @ref LL_RTC_MONTH_FEBRUARY
1664:../../..\CubeG4\include/stm32g4xx_ll_rtc.h ****   *         @arg @ref LL_RTC_MONTH_MARCH
1665:../../..\CubeG4\include/stm32g4xx_ll_rtc.h ****   *         @arg @ref LL_RTC_MONTH_APRIL
1666:../../..\CubeG4\include/stm32g4xx_ll_rtc.h ****   *         @arg @ref LL_RTC_MONTH_MAY
1667:../../..\CubeG4\include/stm32g4xx_ll_rtc.h ****   *         @arg @ref LL_RTC_MONTH_JUNE
1668:../../..\CubeG4\include/stm32g4xx_ll_rtc.h ****   *         @arg @ref LL_RTC_MONTH_JULY
1669:../../..\CubeG4\include/stm32g4xx_ll_rtc.h ****   *         @arg @ref LL_RTC_MONTH_AUGUST
1670:../../..\CubeG4\include/stm32g4xx_ll_rtc.h ****   *         @arg @ref LL_RTC_MONTH_SEPTEMBER
1671:../../..\CubeG4\include/stm32g4xx_ll_rtc.h ****   *         @arg @ref LL_RTC_MONTH_OCTOBER
1672:../../..\CubeG4\include/stm32g4xx_ll_rtc.h ****   *         @arg @ref LL_RTC_MONTH_NOVEMBER
1673:../../..\CubeG4\include/stm32g4xx_ll_rtc.h ****   *         @arg @ref LL_RTC_MONTH_DECEMBER
1674:../../..\CubeG4\include/stm32g4xx_ll_rtc.h ****   * @param  Year Value between Min_Data=0x00 and Max_Data=0x99
1675:../../..\CubeG4\include/stm32g4xx_ll_rtc.h ****   * @retval None
1676:../../..\CubeG4\include/stm32g4xx_ll_rtc.h ****   */
1677:../../..\CubeG4\include/stm32g4xx_ll_rtc.h **** __STATIC_INLINE void LL_RTC_DATE_Config(RTC_TypeDef *RTCx, uint32_t WeekDay, uint32_t Day, uint32_t
1678:../../..\CubeG4\include/stm32g4xx_ll_rtc.h ****                                         uint32_t Year)
1679:../../..\CubeG4\include/stm32g4xx_ll_rtc.h **** {
1680:../../..\CubeG4\include/stm32g4xx_ll_rtc.h ****   register uint32_t temp;
1681:../../..\CubeG4\include/stm32g4xx_ll_rtc.h **** 
1682:../../..\CubeG4\include/stm32g4xx_ll_rtc.h ****   temp = (WeekDay << RTC_DR_WDU_Pos)                                                        | \
1683:../../..\CubeG4\include/stm32g4xx_ll_rtc.h ****          (((Year & 0xF0U) << (RTC_DR_YT_Pos - 4U)) | ((Year & 0x0FU) << RTC_DR_YU_Pos))   | \
1684:../../..\CubeG4\include/stm32g4xx_ll_rtc.h ****          (((Month & 0xF0U) << (RTC_DR_MT_Pos - 4U)) | ((Month & 0x0FU) << RTC_DR_MU_Pos)) | \
1685:../../..\CubeG4\include/stm32g4xx_ll_rtc.h ****          (((Day & 0xF0U) << (RTC_DR_DT_Pos - 4U)) | ((Day & 0x0FU) << RTC_DR_DU_Pos));
1686:../../..\CubeG4\include/stm32g4xx_ll_rtc.h **** 
1687:../../..\CubeG4\include/stm32g4xx_ll_rtc.h ****   MODIFY_REG(RTCx->DR, (RTC_DR_WDU | RTC_DR_MT | RTC_DR_MU | RTC_DR_DT | RTC_DR_DU | RTC_DR_YT | RT
1688:../../..\CubeG4\include/stm32g4xx_ll_rtc.h **** }
1689:../../..\CubeG4\include/stm32g4xx_ll_rtc.h **** 
1690:../../..\CubeG4\include/stm32g4xx_ll_rtc.h **** /**
1691:../../..\CubeG4\include/stm32g4xx_ll_rtc.h ****   * @brief  Get date (WeekDay, Day, Month and Year) in BCD format
1692:../../..\CubeG4\include/stm32g4xx_ll_rtc.h ****   * @note if shadow mode is disabled (BYPSHAD=0), need to check if RSF flag is set
1693:../../..\CubeG4\include/stm32g4xx_ll_rtc.h ****   *       before reading this bit
1694:../../..\CubeG4\include/stm32g4xx_ll_rtc.h ****   * @note helper macros __LL_RTC_GET_WEEKDAY, __LL_RTC_GET_YEAR, __LL_RTC_GET_MONTH,
1695:../../..\CubeG4\include/stm32g4xx_ll_rtc.h ****   * and __LL_RTC_GET_DAY are available to get independently each parameter.
1696:../../..\CubeG4\include/stm32g4xx_ll_rtc.h ****   * @rmtoll RTC_DR           WDU           LL_RTC_DATE_Get\n
1697:../../..\CubeG4\include/stm32g4xx_ll_rtc.h ****   *         RTC_DR           MT            LL_RTC_DATE_Get\n
1698:../../..\CubeG4\include/stm32g4xx_ll_rtc.h ****   *         RTC_DR           MU            LL_RTC_DATE_Get\n
1699:../../..\CubeG4\include/stm32g4xx_ll_rtc.h ****   *         RTC_DR           DT            LL_RTC_DATE_Get\n
1700:../../..\CubeG4\include/stm32g4xx_ll_rtc.h ****   *         RTC_DR           DU            LL_RTC_DATE_Get\n
1701:../../..\CubeG4\include/stm32g4xx_ll_rtc.h ****   *         RTC_DR           YT            LL_RTC_DATE_Get\n
1702:../../..\CubeG4\include/stm32g4xx_ll_rtc.h ****   *         RTC_DR           YU            LL_RTC_DATE_Get
1703:../../..\CubeG4\include/stm32g4xx_ll_rtc.h ****   * @param  RTCx RTC Instance
1704:../../..\CubeG4\include/stm32g4xx_ll_rtc.h ****   * @retval Combination of WeekDay, Day, Month and Year (Format: 0xWWDDMMYY).
1705:../../..\CubeG4\include/stm32g4xx_ll_rtc.h ****   */
1706:../../..\CubeG4\include/stm32g4xx_ll_rtc.h **** __STATIC_INLINE uint32_t LL_RTC_DATE_Get(RTC_TypeDef *RTCx)
1707:../../..\CubeG4\include/stm32g4xx_ll_rtc.h **** {
1708:../../..\CubeG4\include/stm32g4xx_ll_rtc.h ****   register uint32_t temp;
1709:../../..\CubeG4\include/stm32g4xx_ll_rtc.h **** 
1710:../../..\CubeG4\include/stm32g4xx_ll_rtc.h ****   temp = READ_BIT(RTCx->DR, (RTC_DR_WDU | RTC_DR_MT | RTC_DR_MU | RTC_DR_DT | RTC_DR_DU | RTC_DR_YT
1711:../../..\CubeG4\include/stm32g4xx_ll_rtc.h ****   return (uint32_t)((((temp & RTC_DR_WDU) >> RTC_DR_WDU_Pos) << RTC_OFFSET_WEEKDAY) | \
1712:../../..\CubeG4\include/stm32g4xx_ll_rtc.h ****                     (((((temp & RTC_DR_DT) >> RTC_DR_DT_Pos) << 4U) | ((temp & RTC_DR_DU) >> RTC_DR
1713:../../..\CubeG4\include/stm32g4xx_ll_rtc.h ****                     (((((temp & RTC_DR_MT) >> RTC_DR_MT_Pos) << 4U) | ((temp & RTC_DR_MU) >> RTC_DR
1714:../../..\CubeG4\include/stm32g4xx_ll_rtc.h ****                     ((((temp & RTC_DR_YT) >> RTC_DR_YT_Pos) << 4U) | ((temp & RTC_DR_YU) >> RTC_DR_
1715:../../..\CubeG4\include/stm32g4xx_ll_rtc.h **** }
1716:../../..\CubeG4\include/stm32g4xx_ll_rtc.h **** 
1717:../../..\CubeG4\include/stm32g4xx_ll_rtc.h **** /**
1718:../../..\CubeG4\include/stm32g4xx_ll_rtc.h ****   * @}
1719:../../..\CubeG4\include/stm32g4xx_ll_rtc.h ****   */
1720:../../..\CubeG4\include/stm32g4xx_ll_rtc.h **** 
1721:../../..\CubeG4\include/stm32g4xx_ll_rtc.h **** /** @defgroup RTC_LL_EF_ALARMA ALARMA
1722:../../..\CubeG4\include/stm32g4xx_ll_rtc.h ****   * @{
1723:../../..\CubeG4\include/stm32g4xx_ll_rtc.h ****   */
1724:../../..\CubeG4\include/stm32g4xx_ll_rtc.h **** 
1725:../../..\CubeG4\include/stm32g4xx_ll_rtc.h **** /**
1726:../../..\CubeG4\include/stm32g4xx_ll_rtc.h ****   * @brief  Enable Alarm A
1727:../../..\CubeG4\include/stm32g4xx_ll_rtc.h ****   * @note   Bit is write-protected. @ref LL_RTC_DisableWriteProtection function should be called be
1728:../../..\CubeG4\include/stm32g4xx_ll_rtc.h ****   * @rmtoll RTC_CR           ALRAE         LL_RTC_ALMA_Enable
1729:../../..\CubeG4\include/stm32g4xx_ll_rtc.h ****   * @param  RTCx RTC Instance
1730:../../..\CubeG4\include/stm32g4xx_ll_rtc.h ****   * @retval None
1731:../../..\CubeG4\include/stm32g4xx_ll_rtc.h ****   */
1732:../../..\CubeG4\include/stm32g4xx_ll_rtc.h **** __STATIC_INLINE void LL_RTC_ALMA_Enable(RTC_TypeDef *RTCx)
1733:../../..\CubeG4\include/stm32g4xx_ll_rtc.h **** {
1734:../../..\CubeG4\include/stm32g4xx_ll_rtc.h ****   SET_BIT(RTCx->CR, RTC_CR_ALRAE);
1735:../../..\CubeG4\include/stm32g4xx_ll_rtc.h **** }
1736:../../..\CubeG4\include/stm32g4xx_ll_rtc.h **** 
1737:../../..\CubeG4\include/stm32g4xx_ll_rtc.h **** /**
1738:../../..\CubeG4\include/stm32g4xx_ll_rtc.h ****   * @brief  Disable Alarm A
1739:../../..\CubeG4\include/stm32g4xx_ll_rtc.h ****   * @note   Bit is write-protected. @ref LL_RTC_DisableWriteProtection function should be called be
1740:../../..\CubeG4\include/stm32g4xx_ll_rtc.h ****   * @rmtoll RTC_CR           ALRAE         LL_RTC_ALMA_Disable
1741:../../..\CubeG4\include/stm32g4xx_ll_rtc.h ****   * @param  RTCx RTC Instance
1742:../../..\CubeG4\include/stm32g4xx_ll_rtc.h ****   * @retval None
1743:../../..\CubeG4\include/stm32g4xx_ll_rtc.h ****   */
1744:../../..\CubeG4\include/stm32g4xx_ll_rtc.h **** __STATIC_INLINE void LL_RTC_ALMA_Disable(RTC_TypeDef *RTCx)
1745:../../..\CubeG4\include/stm32g4xx_ll_rtc.h **** {
1746:../../..\CubeG4\include/stm32g4xx_ll_rtc.h ****   CLEAR_BIT(RTCx->CR, RTC_CR_ALRAE);
1747:../../..\CubeG4\include/stm32g4xx_ll_rtc.h **** }
1748:../../..\CubeG4\include/stm32g4xx_ll_rtc.h **** 
1749:../../..\CubeG4\include/stm32g4xx_ll_rtc.h **** /**
1750:../../..\CubeG4\include/stm32g4xx_ll_rtc.h ****   * @brief  Specify the Alarm A masks.
1751:../../..\CubeG4\include/stm32g4xx_ll_rtc.h ****   * @rmtoll RTC_ALRMAR       MSK4          LL_RTC_ALMA_SetMask\n
1752:../../..\CubeG4\include/stm32g4xx_ll_rtc.h ****   *         RTC_ALRMAR       MSK3          LL_RTC_ALMA_SetMask\n
1753:../../..\CubeG4\include/stm32g4xx_ll_rtc.h ****   *         RTC_ALRMAR       MSK2          LL_RTC_ALMA_SetMask\n
1754:../../..\CubeG4\include/stm32g4xx_ll_rtc.h ****   *         RTC_ALRMAR       MSK1          LL_RTC_ALMA_SetMask
1755:../../..\CubeG4\include/stm32g4xx_ll_rtc.h ****   * @param  RTCx RTC Instance
1756:../../..\CubeG4\include/stm32g4xx_ll_rtc.h ****   * @param  Mask This parameter can be a combination of the following values:
1757:../../..\CubeG4\include/stm32g4xx_ll_rtc.h ****   *         @arg @ref LL_RTC_ALMA_MASK_NONE
1758:../../..\CubeG4\include/stm32g4xx_ll_rtc.h ****   *         @arg @ref LL_RTC_ALMA_MASK_DATEWEEKDAY
1759:../../..\CubeG4\include/stm32g4xx_ll_rtc.h ****   *         @arg @ref LL_RTC_ALMA_MASK_HOURS
1760:../../..\CubeG4\include/stm32g4xx_ll_rtc.h ****   *         @arg @ref LL_RTC_ALMA_MASK_MINUTES
1761:../../..\CubeG4\include/stm32g4xx_ll_rtc.h ****   *         @arg @ref LL_RTC_ALMA_MASK_SECONDS
1762:../../..\CubeG4\include/stm32g4xx_ll_rtc.h ****   *         @arg @ref LL_RTC_ALMA_MASK_ALL
1763:../../..\CubeG4\include/stm32g4xx_ll_rtc.h ****   * @retval None
1764:../../..\CubeG4\include/stm32g4xx_ll_rtc.h ****   */
1765:../../..\CubeG4\include/stm32g4xx_ll_rtc.h **** __STATIC_INLINE void LL_RTC_ALMA_SetMask(RTC_TypeDef *RTCx, uint32_t Mask)
1766:../../..\CubeG4\include/stm32g4xx_ll_rtc.h **** {
1767:../../..\CubeG4\include/stm32g4xx_ll_rtc.h ****   MODIFY_REG(RTCx->ALRMAR, RTC_ALRMAR_MSK4 | RTC_ALRMAR_MSK3 | RTC_ALRMAR_MSK2 | RTC_ALRMAR_MSK1, M
1768:../../..\CubeG4\include/stm32g4xx_ll_rtc.h **** }
1769:../../..\CubeG4\include/stm32g4xx_ll_rtc.h **** 
1770:../../..\CubeG4\include/stm32g4xx_ll_rtc.h **** /**
1771:../../..\CubeG4\include/stm32g4xx_ll_rtc.h ****   * @brief  Get the Alarm A masks.
1772:../../..\CubeG4\include/stm32g4xx_ll_rtc.h ****   * @rmtoll RTC_ALRMAR       MSK4          LL_RTC_ALMA_GetMask\n
1773:../../..\CubeG4\include/stm32g4xx_ll_rtc.h ****   *         RTC_ALRMAR       MSK3          LL_RTC_ALMA_GetMask\n
1774:../../..\CubeG4\include/stm32g4xx_ll_rtc.h ****   *         RTC_ALRMAR       MSK2          LL_RTC_ALMA_GetMask\n
1775:../../..\CubeG4\include/stm32g4xx_ll_rtc.h ****   *         RTC_ALRMAR       MSK1          LL_RTC_ALMA_GetMask
1776:../../..\CubeG4\include/stm32g4xx_ll_rtc.h ****   * @param  RTCx RTC Instance
1777:../../..\CubeG4\include/stm32g4xx_ll_rtc.h ****   * @retval Returned value can be can be a combination of the following values:
1778:../../..\CubeG4\include/stm32g4xx_ll_rtc.h ****   *         @arg @ref LL_RTC_ALMA_MASK_NONE
1779:../../..\CubeG4\include/stm32g4xx_ll_rtc.h ****   *         @arg @ref LL_RTC_ALMA_MASK_DATEWEEKDAY
1780:../../..\CubeG4\include/stm32g4xx_ll_rtc.h ****   *         @arg @ref LL_RTC_ALMA_MASK_HOURS
1781:../../..\CubeG4\include/stm32g4xx_ll_rtc.h ****   *         @arg @ref LL_RTC_ALMA_MASK_MINUTES
1782:../../..\CubeG4\include/stm32g4xx_ll_rtc.h ****   *         @arg @ref LL_RTC_ALMA_MASK_SECONDS
1783:../../..\CubeG4\include/stm32g4xx_ll_rtc.h ****   *         @arg @ref LL_RTC_ALMA_MASK_ALL
1784:../../..\CubeG4\include/stm32g4xx_ll_rtc.h ****   */
1785:../../..\CubeG4\include/stm32g4xx_ll_rtc.h **** __STATIC_INLINE uint32_t LL_RTC_ALMA_GetMask(RTC_TypeDef *RTCx)
1786:../../..\CubeG4\include/stm32g4xx_ll_rtc.h **** {
1787:../../..\CubeG4\include/stm32g4xx_ll_rtc.h ****   return (uint32_t)(READ_BIT(RTCx->ALRMAR, RTC_ALRMAR_MSK4 | RTC_ALRMAR_MSK3 | RTC_ALRMAR_MSK2 | RT
1788:../../..\CubeG4\include/stm32g4xx_ll_rtc.h **** }
1789:../../..\CubeG4\include/stm32g4xx_ll_rtc.h **** 
1790:../../..\CubeG4\include/stm32g4xx_ll_rtc.h **** /**
1791:../../..\CubeG4\include/stm32g4xx_ll_rtc.h ****   * @brief  Enable AlarmA Week day selection (DU[3:0] represents the week day. DT[1:0] is do not ca
1792:../../..\CubeG4\include/stm32g4xx_ll_rtc.h ****   * @rmtoll RTC_ALRMAR       WDSEL         LL_RTC_ALMA_EnableWeekday
1793:../../..\CubeG4\include/stm32g4xx_ll_rtc.h ****   * @param  RTCx RTC Instance
1794:../../..\CubeG4\include/stm32g4xx_ll_rtc.h ****   * @retval None
1795:../../..\CubeG4\include/stm32g4xx_ll_rtc.h ****   */
1796:../../..\CubeG4\include/stm32g4xx_ll_rtc.h **** __STATIC_INLINE void LL_RTC_ALMA_EnableWeekday(RTC_TypeDef *RTCx)
1797:../../..\CubeG4\include/stm32g4xx_ll_rtc.h **** {
1798:../../..\CubeG4\include/stm32g4xx_ll_rtc.h ****   SET_BIT(RTCx->ALRMAR, RTC_ALRMAR_WDSEL);
1799:../../..\CubeG4\include/stm32g4xx_ll_rtc.h **** }
1800:../../..\CubeG4\include/stm32g4xx_ll_rtc.h **** 
1801:../../..\CubeG4\include/stm32g4xx_ll_rtc.h **** /**
1802:../../..\CubeG4\include/stm32g4xx_ll_rtc.h ****   * @brief  Disable AlarmA Week day selection (DU[3:0] represents the date )
1803:../../..\CubeG4\include/stm32g4xx_ll_rtc.h ****   * @rmtoll RTC_ALRMAR       WDSEL         LL_RTC_ALMA_DisableWeekday
1804:../../..\CubeG4\include/stm32g4xx_ll_rtc.h ****   * @param  RTCx RTC Instance
1805:../../..\CubeG4\include/stm32g4xx_ll_rtc.h ****   * @retval None
1806:../../..\CubeG4\include/stm32g4xx_ll_rtc.h ****   */
1807:../../..\CubeG4\include/stm32g4xx_ll_rtc.h **** __STATIC_INLINE void LL_RTC_ALMA_DisableWeekday(RTC_TypeDef *RTCx)
 196              		.loc 2 1807 22 view .LVU49
 197              	.LBB97:
1808:../../..\CubeG4\include/stm32g4xx_ll_rtc.h **** {
1809:../../..\CubeG4\include/stm32g4xx_ll_rtc.h ****   CLEAR_BIT(RTCx->ALRMAR, RTC_ALRMAR_WDSEL);
 198              		.loc 2 1809 3 view .LVU50
 199 001e 036C     		ldr	r3, [r0, #64]
 200 0020 23F08043 		bic	r3, r3, #1073741824
 201 0024 0364     		str	r3, [r0, #64]
 202              	.LVL8:
 203              		.loc 2 1809 3 is_stmt 0 view .LVU51
 204              	.LBE97:
 205              	.LBE96:
 534:../../..\CubeG4\src/stm32g4xx_ll_rtc.c ****     if (RTC_Format != LL_RTC_FORMAT_BIN)
 206              		.loc 1 534 5 is_stmt 1 view .LVU52
 207              		.loc 1 534 8 is_stmt 0 view .LVU53
 208 0026 F1B1     		cbz	r1, .L9
 535:../../..\CubeG4\src/stm32g4xx_ll_rtc.c ****     {
 536:../../..\CubeG4\src/stm32g4xx_ll_rtc.c ****       LL_RTC_ALMA_SetDay(RTCx, RTC_AlarmStruct->AlarmDateWeekDay);
 209              		.loc 1 536 7 is_stmt 1 view .LVU54
 210              	.LVL9:
 211              	.LBB98:
 212              	.LBI98:
1810:../../..\CubeG4\include/stm32g4xx_ll_rtc.h **** }
1811:../../..\CubeG4\include/stm32g4xx_ll_rtc.h **** 
1812:../../..\CubeG4\include/stm32g4xx_ll_rtc.h **** /**
1813:../../..\CubeG4\include/stm32g4xx_ll_rtc.h ****   * @brief  Set ALARM A Day in BCD format
1814:../../..\CubeG4\include/stm32g4xx_ll_rtc.h ****   * @note helper macro __LL_RTC_CONVERT_BIN2BCD is available to convert Day from binary to BCD form
1815:../../..\CubeG4\include/stm32g4xx_ll_rtc.h ****   * @rmtoll RTC_ALRMAR       DT            LL_RTC_ALMA_SetDay\n
1816:../../..\CubeG4\include/stm32g4xx_ll_rtc.h ****   *         RTC_ALRMAR       DU            LL_RTC_ALMA_SetDay
1817:../../..\CubeG4\include/stm32g4xx_ll_rtc.h ****   * @param  RTCx RTC Instance
1818:../../..\CubeG4\include/stm32g4xx_ll_rtc.h ****   * @param  Day Value between Min_Data=0x01 and Max_Data=0x31
1819:../../..\CubeG4\include/stm32g4xx_ll_rtc.h ****   * @retval None
1820:../../..\CubeG4\include/stm32g4xx_ll_rtc.h ****   */
1821:../../..\CubeG4\include/stm32g4xx_ll_rtc.h **** __STATIC_INLINE void LL_RTC_ALMA_SetDay(RTC_TypeDef *RTCx, uint32_t Day)
 213              		.loc 2 1821 22 view .LVU55
 214              	.LBB99:
1822:../../..\CubeG4\include/stm32g4xx_ll_rtc.h **** {
1823:../../..\CubeG4\include/stm32g4xx_ll_rtc.h ****   MODIFY_REG(RTCx->ALRMAR, (RTC_ALRMAR_DT | RTC_ALRMAR_DU),
 215              		.loc 2 1823 3 view .LVU56
 216 0028 016C     		ldr	r1, [r0, #64]
 217              	.LVL10:
 218              		.loc 2 1823 3 is_stmt 0 view .LVU57
 219 002a 21F07C51 		bic	r1, r1, #1056964608
 220 002e 41EA0461 		orr	r1, r1, r4, lsl #24
 221 0032 0164     		str	r1, [r0, #64]
 222              	.LBE99:
 223              	.LBE98:
 537:../../..\CubeG4\src/stm32g4xx_ll_rtc.c ****     }
 538:../../..\CubeG4\src/stm32g4xx_ll_rtc.c ****     else
 539:../../..\CubeG4\src/stm32g4xx_ll_rtc.c ****     {
 540:../../..\CubeG4\src/stm32g4xx_ll_rtc.c ****       LL_RTC_ALMA_SetDay(RTCx, __LL_RTC_CONVERT_BIN2BCD(RTC_AlarmStruct->AlarmDateWeekDay));
 541:../../..\CubeG4\src/stm32g4xx_ll_rtc.c ****     }
 542:../../..\CubeG4\src/stm32g4xx_ll_rtc.c ****   }
 543:../../..\CubeG4\src/stm32g4xx_ll_rtc.c ****   else
 544:../../..\CubeG4\src/stm32g4xx_ll_rtc.c ****   {
 545:../../..\CubeG4\src/stm32g4xx_ll_rtc.c ****     /* Set the week day for ALARM */
 546:../../..\CubeG4\src/stm32g4xx_ll_rtc.c ****     LL_RTC_ALMA_EnableWeekday(RTCx);
 547:../../..\CubeG4\src/stm32g4xx_ll_rtc.c ****     LL_RTC_ALMA_SetWeekDay(RTCx, RTC_AlarmStruct->AlarmDateWeekDay);
 548:../../..\CubeG4\src/stm32g4xx_ll_rtc.c ****   }
 549:../../..\CubeG4\src/stm32g4xx_ll_rtc.c **** 
 550:../../..\CubeG4\src/stm32g4xx_ll_rtc.c ****   /* Configure the Alarm register */
 551:../../..\CubeG4\src/stm32g4xx_ll_rtc.c ****   if (RTC_Format != LL_RTC_FORMAT_BIN)
 224              		.loc 1 551 3 is_stmt 1 view .LVU58
 225              	.LVL11:
 226              	.L10:
 552:../../..\CubeG4\src/stm32g4xx_ll_rtc.c ****   {
 553:../../..\CubeG4\src/stm32g4xx_ll_rtc.c ****     LL_RTC_ALMA_ConfigTime(RTCx, RTC_AlarmStruct->AlarmTime.TimeFormat, RTC_AlarmStruct->AlarmTime.
 227              		.loc 1 553 5 view .LVU59
 228              	.LBB100:
 229              	.LBI100:
1824:../../..\CubeG4\include/stm32g4xx_ll_rtc.h ****              (((Day & 0xF0U) << (RTC_ALRMAR_DT_Pos - 4U)) | ((Day & 0x0FU) << RTC_ALRMAR_DU_Pos)));
1825:../../..\CubeG4\include/stm32g4xx_ll_rtc.h **** }
1826:../../..\CubeG4\include/stm32g4xx_ll_rtc.h **** 
1827:../../..\CubeG4\include/stm32g4xx_ll_rtc.h **** /**
1828:../../..\CubeG4\include/stm32g4xx_ll_rtc.h ****   * @brief  Get ALARM A Day in BCD format
1829:../../..\CubeG4\include/stm32g4xx_ll_rtc.h ****   * @note helper macro __LL_RTC_CONVERT_BCD2BIN is available to convert Day from BCD to Binary form
1830:../../..\CubeG4\include/stm32g4xx_ll_rtc.h ****   * @rmtoll RTC_ALRMAR       DT            LL_RTC_ALMA_GetDay\n
1831:../../..\CubeG4\include/stm32g4xx_ll_rtc.h ****   *         RTC_ALRMAR       DU            LL_RTC_ALMA_GetDay
1832:../../..\CubeG4\include/stm32g4xx_ll_rtc.h ****   * @param  RTCx RTC Instance
1833:../../..\CubeG4\include/stm32g4xx_ll_rtc.h ****   * @retval Value between Min_Data=0x01 and Max_Data=0x31
1834:../../..\CubeG4\include/stm32g4xx_ll_rtc.h ****   */
1835:../../..\CubeG4\include/stm32g4xx_ll_rtc.h **** __STATIC_INLINE uint32_t LL_RTC_ALMA_GetDay(RTC_TypeDef *RTCx)
1836:../../..\CubeG4\include/stm32g4xx_ll_rtc.h **** {
1837:../../..\CubeG4\include/stm32g4xx_ll_rtc.h ****   return (uint32_t)((READ_BIT(RTCx->ALRMAR, (RTC_ALRMAR_DT | RTC_ALRMAR_DU))) >> RTC_ALRMAR_DU_Pos)
1838:../../..\CubeG4\include/stm32g4xx_ll_rtc.h **** }
1839:../../..\CubeG4\include/stm32g4xx_ll_rtc.h **** 
1840:../../..\CubeG4\include/stm32g4xx_ll_rtc.h **** /**
1841:../../..\CubeG4\include/stm32g4xx_ll_rtc.h ****   * @brief  Set ALARM A Weekday
1842:../../..\CubeG4\include/stm32g4xx_ll_rtc.h ****   * @rmtoll RTC_ALRMAR       DU            LL_RTC_ALMA_SetWeekDay
1843:../../..\CubeG4\include/stm32g4xx_ll_rtc.h ****   * @param  RTCx RTC Instance
1844:../../..\CubeG4\include/stm32g4xx_ll_rtc.h ****   * @param  WeekDay This parameter can be one of the following values:
1845:../../..\CubeG4\include/stm32g4xx_ll_rtc.h ****   *         @arg @ref LL_RTC_WEEKDAY_MONDAY
1846:../../..\CubeG4\include/stm32g4xx_ll_rtc.h ****   *         @arg @ref LL_RTC_WEEKDAY_TUESDAY
1847:../../..\CubeG4\include/stm32g4xx_ll_rtc.h ****   *         @arg @ref LL_RTC_WEEKDAY_WEDNESDAY
1848:../../..\CubeG4\include/stm32g4xx_ll_rtc.h ****   *         @arg @ref LL_RTC_WEEKDAY_THURSDAY
1849:../../..\CubeG4\include/stm32g4xx_ll_rtc.h ****   *         @arg @ref LL_RTC_WEEKDAY_FRIDAY
1850:../../..\CubeG4\include/stm32g4xx_ll_rtc.h ****   *         @arg @ref LL_RTC_WEEKDAY_SATURDAY
1851:../../..\CubeG4\include/stm32g4xx_ll_rtc.h ****   *         @arg @ref LL_RTC_WEEKDAY_SUNDAY
1852:../../..\CubeG4\include/stm32g4xx_ll_rtc.h ****   * @retval None
1853:../../..\CubeG4\include/stm32g4xx_ll_rtc.h ****   */
1854:../../..\CubeG4\include/stm32g4xx_ll_rtc.h **** __STATIC_INLINE void LL_RTC_ALMA_SetWeekDay(RTC_TypeDef *RTCx, uint32_t WeekDay)
1855:../../..\CubeG4\include/stm32g4xx_ll_rtc.h **** {
1856:../../..\CubeG4\include/stm32g4xx_ll_rtc.h ****   MODIFY_REG(RTCx->ALRMAR, RTC_ALRMAR_DU, WeekDay << RTC_ALRMAR_DU_Pos);
1857:../../..\CubeG4\include/stm32g4xx_ll_rtc.h **** }
1858:../../..\CubeG4\include/stm32g4xx_ll_rtc.h **** 
1859:../../..\CubeG4\include/stm32g4xx_ll_rtc.h **** /**
1860:../../..\CubeG4\include/stm32g4xx_ll_rtc.h ****   * @brief  Get ALARM A Weekday
1861:../../..\CubeG4\include/stm32g4xx_ll_rtc.h ****   * @rmtoll RTC_ALRMAR       DU            LL_RTC_ALMA_GetWeekDay
1862:../../..\CubeG4\include/stm32g4xx_ll_rtc.h ****   * @param  RTCx RTC Instance
1863:../../..\CubeG4\include/stm32g4xx_ll_rtc.h ****   * @retval Returned value can be one of the following values:
1864:../../..\CubeG4\include/stm32g4xx_ll_rtc.h ****   *         @arg @ref LL_RTC_WEEKDAY_MONDAY
1865:../../..\CubeG4\include/stm32g4xx_ll_rtc.h ****   *         @arg @ref LL_RTC_WEEKDAY_TUESDAY
1866:../../..\CubeG4\include/stm32g4xx_ll_rtc.h ****   *         @arg @ref LL_RTC_WEEKDAY_WEDNESDAY
1867:../../..\CubeG4\include/stm32g4xx_ll_rtc.h ****   *         @arg @ref LL_RTC_WEEKDAY_THURSDAY
1868:../../..\CubeG4\include/stm32g4xx_ll_rtc.h ****   *         @arg @ref LL_RTC_WEEKDAY_FRIDAY
1869:../../..\CubeG4\include/stm32g4xx_ll_rtc.h ****   *         @arg @ref LL_RTC_WEEKDAY_SATURDAY
1870:../../..\CubeG4\include/stm32g4xx_ll_rtc.h ****   *         @arg @ref LL_RTC_WEEKDAY_SUNDAY
1871:../../..\CubeG4\include/stm32g4xx_ll_rtc.h ****   */
1872:../../..\CubeG4\include/stm32g4xx_ll_rtc.h **** __STATIC_INLINE uint32_t LL_RTC_ALMA_GetWeekDay(RTC_TypeDef *RTCx)
1873:../../..\CubeG4\include/stm32g4xx_ll_rtc.h **** {
1874:../../..\CubeG4\include/stm32g4xx_ll_rtc.h ****   return (uint32_t)(READ_BIT(RTCx->ALRMAR, RTC_ALRMAR_DU) >> RTC_ALRMAR_DU_Pos);
1875:../../..\CubeG4\include/stm32g4xx_ll_rtc.h **** }
1876:../../..\CubeG4\include/stm32g4xx_ll_rtc.h **** 
1877:../../..\CubeG4\include/stm32g4xx_ll_rtc.h **** /**
1878:../../..\CubeG4\include/stm32g4xx_ll_rtc.h ****   * @brief  Set Alarm A time format (AM/24-hour or PM notation)
1879:../../..\CubeG4\include/stm32g4xx_ll_rtc.h ****   * @rmtoll RTC_ALRMAR       PM            LL_RTC_ALMA_SetTimeFormat
1880:../../..\CubeG4\include/stm32g4xx_ll_rtc.h ****   * @param  RTCx RTC Instance
1881:../../..\CubeG4\include/stm32g4xx_ll_rtc.h ****   * @param  TimeFormat This parameter can be one of the following values:
1882:../../..\CubeG4\include/stm32g4xx_ll_rtc.h ****   *         @arg @ref LL_RTC_ALMA_TIME_FORMAT_AM
1883:../../..\CubeG4\include/stm32g4xx_ll_rtc.h ****   *         @arg @ref LL_RTC_ALMA_TIME_FORMAT_PM
1884:../../..\CubeG4\include/stm32g4xx_ll_rtc.h ****   * @retval None
1885:../../..\CubeG4\include/stm32g4xx_ll_rtc.h ****   */
1886:../../..\CubeG4\include/stm32g4xx_ll_rtc.h **** __STATIC_INLINE void LL_RTC_ALMA_SetTimeFormat(RTC_TypeDef *RTCx, uint32_t TimeFormat)
1887:../../..\CubeG4\include/stm32g4xx_ll_rtc.h **** {
1888:../../..\CubeG4\include/stm32g4xx_ll_rtc.h ****   MODIFY_REG(RTCx->ALRMAR, RTC_ALRMAR_PM, TimeFormat);
1889:../../..\CubeG4\include/stm32g4xx_ll_rtc.h **** }
1890:../../..\CubeG4\include/stm32g4xx_ll_rtc.h **** 
1891:../../..\CubeG4\include/stm32g4xx_ll_rtc.h **** /**
1892:../../..\CubeG4\include/stm32g4xx_ll_rtc.h ****   * @brief  Get Alarm A time format (AM or PM notation)
1893:../../..\CubeG4\include/stm32g4xx_ll_rtc.h ****   * @rmtoll RTC_ALRMAR       PM            LL_RTC_ALMA_GetTimeFormat
1894:../../..\CubeG4\include/stm32g4xx_ll_rtc.h ****   * @param  RTCx RTC Instance
1895:../../..\CubeG4\include/stm32g4xx_ll_rtc.h ****   * @retval Returned value can be one of the following values:
1896:../../..\CubeG4\include/stm32g4xx_ll_rtc.h ****   *         @arg @ref LL_RTC_ALMA_TIME_FORMAT_AM
1897:../../..\CubeG4\include/stm32g4xx_ll_rtc.h ****   *         @arg @ref LL_RTC_ALMA_TIME_FORMAT_PM
1898:../../..\CubeG4\include/stm32g4xx_ll_rtc.h ****   */
1899:../../..\CubeG4\include/stm32g4xx_ll_rtc.h **** __STATIC_INLINE uint32_t LL_RTC_ALMA_GetTimeFormat(RTC_TypeDef *RTCx)
1900:../../..\CubeG4\include/stm32g4xx_ll_rtc.h **** {
1901:../../..\CubeG4\include/stm32g4xx_ll_rtc.h ****   return (uint32_t)(READ_BIT(RTCx->ALRMAR, RTC_ALRMAR_PM));
1902:../../..\CubeG4\include/stm32g4xx_ll_rtc.h **** }
1903:../../..\CubeG4\include/stm32g4xx_ll_rtc.h **** 
1904:../../..\CubeG4\include/stm32g4xx_ll_rtc.h **** /**
1905:../../..\CubeG4\include/stm32g4xx_ll_rtc.h ****   * @brief  Set ALARM A Hours in BCD format
1906:../../..\CubeG4\include/stm32g4xx_ll_rtc.h ****   * @note helper macro __LL_RTC_CONVERT_BIN2BCD is available to convert Hours from binary to BCD fo
1907:../../..\CubeG4\include/stm32g4xx_ll_rtc.h ****   * @rmtoll RTC_ALRMAR       HT            LL_RTC_ALMA_SetHour\n
1908:../../..\CubeG4\include/stm32g4xx_ll_rtc.h ****   *         RTC_ALRMAR       HU            LL_RTC_ALMA_SetHour
1909:../../..\CubeG4\include/stm32g4xx_ll_rtc.h ****   * @param  RTCx RTC Instance
1910:../../..\CubeG4\include/stm32g4xx_ll_rtc.h ****   * @param  Hours Value between Min_Data=0x01 and Max_Data=0x12 or between Min_Data=0x00 and Max_Da
1911:../../..\CubeG4\include/stm32g4xx_ll_rtc.h ****   * @retval None
1912:../../..\CubeG4\include/stm32g4xx_ll_rtc.h ****   */
1913:../../..\CubeG4\include/stm32g4xx_ll_rtc.h **** __STATIC_INLINE void LL_RTC_ALMA_SetHour(RTC_TypeDef *RTCx, uint32_t Hours)
1914:../../..\CubeG4\include/stm32g4xx_ll_rtc.h **** {
1915:../../..\CubeG4\include/stm32g4xx_ll_rtc.h ****   MODIFY_REG(RTCx->ALRMAR, (RTC_ALRMAR_HT | RTC_ALRMAR_HU),
1916:../../..\CubeG4\include/stm32g4xx_ll_rtc.h ****              (((Hours & 0xF0U) << (RTC_ALRMAR_HT_Pos - 4U)) | ((Hours & 0x0FU) << RTC_ALRMAR_HU_Pos
1917:../../..\CubeG4\include/stm32g4xx_ll_rtc.h **** }
1918:../../..\CubeG4\include/stm32g4xx_ll_rtc.h **** 
1919:../../..\CubeG4\include/stm32g4xx_ll_rtc.h **** /**
1920:../../..\CubeG4\include/stm32g4xx_ll_rtc.h ****   * @brief  Get ALARM A Hours in BCD format
1921:../../..\CubeG4\include/stm32g4xx_ll_rtc.h ****   * @note helper macro __LL_RTC_CONVERT_BCD2BIN is available to convert Hours from BCD to Binary fo
1922:../../..\CubeG4\include/stm32g4xx_ll_rtc.h ****   * @rmtoll RTC_ALRMAR       HT            LL_RTC_ALMA_GetHour\n
1923:../../..\CubeG4\include/stm32g4xx_ll_rtc.h ****   *         RTC_ALRMAR       HU            LL_RTC_ALMA_GetHour
1924:../../..\CubeG4\include/stm32g4xx_ll_rtc.h ****   * @param  RTCx RTC Instance
1925:../../..\CubeG4\include/stm32g4xx_ll_rtc.h ****   * @retval Value between Min_Data=0x01 and Max_Data=0x12 or between Min_Data=0x00 and Max_Data=0x2
1926:../../..\CubeG4\include/stm32g4xx_ll_rtc.h ****   */
1927:../../..\CubeG4\include/stm32g4xx_ll_rtc.h **** __STATIC_INLINE uint32_t LL_RTC_ALMA_GetHour(RTC_TypeDef *RTCx)
1928:../../..\CubeG4\include/stm32g4xx_ll_rtc.h **** {
1929:../../..\CubeG4\include/stm32g4xx_ll_rtc.h ****   return (uint32_t)((READ_BIT(RTCx->ALRMAR, (RTC_ALRMAR_HT | RTC_ALRMAR_HU))) >> RTC_ALRMAR_HU_Pos)
1930:../../..\CubeG4\include/stm32g4xx_ll_rtc.h **** }
1931:../../..\CubeG4\include/stm32g4xx_ll_rtc.h **** 
1932:../../..\CubeG4\include/stm32g4xx_ll_rtc.h **** /**
1933:../../..\CubeG4\include/stm32g4xx_ll_rtc.h ****   * @brief  Set ALARM A Minutes in BCD format
1934:../../..\CubeG4\include/stm32g4xx_ll_rtc.h ****   * @note helper macro __LL_RTC_CONVERT_BIN2BCD is available to convert Minutes from binary to BCD 
1935:../../..\CubeG4\include/stm32g4xx_ll_rtc.h ****   * @rmtoll RTC_ALRMAR       MNT           LL_RTC_ALMA_SetMinute\n
1936:../../..\CubeG4\include/stm32g4xx_ll_rtc.h ****   *         RTC_ALRMAR       MNU           LL_RTC_ALMA_SetMinute
1937:../../..\CubeG4\include/stm32g4xx_ll_rtc.h ****   * @param  RTCx RTC Instance
1938:../../..\CubeG4\include/stm32g4xx_ll_rtc.h ****   * @param  Minutes Value between Min_Data=0x00 and Max_Data=0x59
1939:../../..\CubeG4\include/stm32g4xx_ll_rtc.h ****   * @retval None
1940:../../..\CubeG4\include/stm32g4xx_ll_rtc.h ****   */
1941:../../..\CubeG4\include/stm32g4xx_ll_rtc.h **** __STATIC_INLINE void LL_RTC_ALMA_SetMinute(RTC_TypeDef *RTCx, uint32_t Minutes)
1942:../../..\CubeG4\include/stm32g4xx_ll_rtc.h **** {
1943:../../..\CubeG4\include/stm32g4xx_ll_rtc.h ****   MODIFY_REG(RTCx->ALRMAR, (RTC_ALRMAR_MNT | RTC_ALRMAR_MNU),
1944:../../..\CubeG4\include/stm32g4xx_ll_rtc.h ****              (((Minutes & 0xF0U) << (RTC_ALRMAR_MNT_Pos - 4U)) | ((Minutes & 0x0FU) << RTC_ALRMAR_M
1945:../../..\CubeG4\include/stm32g4xx_ll_rtc.h **** }
1946:../../..\CubeG4\include/stm32g4xx_ll_rtc.h **** 
1947:../../..\CubeG4\include/stm32g4xx_ll_rtc.h **** /**
1948:../../..\CubeG4\include/stm32g4xx_ll_rtc.h ****   * @brief  Get ALARM A Minutes in BCD format
1949:../../..\CubeG4\include/stm32g4xx_ll_rtc.h ****   * @note helper macro __LL_RTC_CONVERT_BCD2BIN is available to convert Minutes from BCD to Binary 
1950:../../..\CubeG4\include/stm32g4xx_ll_rtc.h ****   * @rmtoll RTC_ALRMAR       MNT           LL_RTC_ALMA_GetMinute\n
1951:../../..\CubeG4\include/stm32g4xx_ll_rtc.h ****   *         RTC_ALRMAR       MNU           LL_RTC_ALMA_GetMinute
1952:../../..\CubeG4\include/stm32g4xx_ll_rtc.h ****   * @param  RTCx RTC Instance
1953:../../..\CubeG4\include/stm32g4xx_ll_rtc.h ****   * @retval Value between Min_Data=0x00 and Max_Data=0x59
1954:../../..\CubeG4\include/stm32g4xx_ll_rtc.h ****   */
1955:../../..\CubeG4\include/stm32g4xx_ll_rtc.h **** __STATIC_INLINE uint32_t LL_RTC_ALMA_GetMinute(RTC_TypeDef *RTCx)
1956:../../..\CubeG4\include/stm32g4xx_ll_rtc.h **** {
1957:../../..\CubeG4\include/stm32g4xx_ll_rtc.h ****   return (uint32_t)((READ_BIT(RTCx->ALRMAR, (RTC_ALRMAR_MNT | RTC_ALRMAR_MNU))) >> RTC_ALRMAR_MNU_P
1958:../../..\CubeG4\include/stm32g4xx_ll_rtc.h **** }
1959:../../..\CubeG4\include/stm32g4xx_ll_rtc.h **** 
1960:../../..\CubeG4\include/stm32g4xx_ll_rtc.h **** /**
1961:../../..\CubeG4\include/stm32g4xx_ll_rtc.h ****   * @brief  Set ALARM A Seconds in BCD format
1962:../../..\CubeG4\include/stm32g4xx_ll_rtc.h ****   * @note helper macro __LL_RTC_CONVERT_BIN2BCD is available to convert Seconds from binary to BCD 
1963:../../..\CubeG4\include/stm32g4xx_ll_rtc.h ****   * @rmtoll RTC_ALRMAR       ST            LL_RTC_ALMA_SetSecond\n
1964:../../..\CubeG4\include/stm32g4xx_ll_rtc.h ****   *         RTC_ALRMAR       SU            LL_RTC_ALMA_SetSecond
1965:../../..\CubeG4\include/stm32g4xx_ll_rtc.h ****   * @param  RTCx RTC Instance
1966:../../..\CubeG4\include/stm32g4xx_ll_rtc.h ****   * @param  Seconds Value between Min_Data=0x00 and Max_Data=0x59
1967:../../..\CubeG4\include/stm32g4xx_ll_rtc.h ****   * @retval None
1968:../../..\CubeG4\include/stm32g4xx_ll_rtc.h ****   */
1969:../../..\CubeG4\include/stm32g4xx_ll_rtc.h **** __STATIC_INLINE void LL_RTC_ALMA_SetSecond(RTC_TypeDef *RTCx, uint32_t Seconds)
1970:../../..\CubeG4\include/stm32g4xx_ll_rtc.h **** {
1971:../../..\CubeG4\include/stm32g4xx_ll_rtc.h ****   MODIFY_REG(RTCx->ALRMAR, (RTC_ALRMAR_ST | RTC_ALRMAR_SU),
1972:../../..\CubeG4\include/stm32g4xx_ll_rtc.h ****              (((Seconds & 0xF0U) << (RTC_ALRMAR_ST_Pos - 4U)) | ((Seconds & 0x0FU) << RTC_ALRMAR_SU
1973:../../..\CubeG4\include/stm32g4xx_ll_rtc.h **** }
1974:../../..\CubeG4\include/stm32g4xx_ll_rtc.h **** 
1975:../../..\CubeG4\include/stm32g4xx_ll_rtc.h **** /**
1976:../../..\CubeG4\include/stm32g4xx_ll_rtc.h ****   * @brief  Get ALARM A Seconds in BCD format
1977:../../..\CubeG4\include/stm32g4xx_ll_rtc.h ****   * @note helper macro __LL_RTC_CONVERT_BCD2BIN is available to convert Seconds from BCD to Binary 
1978:../../..\CubeG4\include/stm32g4xx_ll_rtc.h ****   * @rmtoll RTC_ALRMAR       ST            LL_RTC_ALMA_GetSecond\n
1979:../../..\CubeG4\include/stm32g4xx_ll_rtc.h ****   *         RTC_ALRMAR       SU            LL_RTC_ALMA_GetSecond
1980:../../..\CubeG4\include/stm32g4xx_ll_rtc.h ****   * @param  RTCx RTC Instance
1981:../../..\CubeG4\include/stm32g4xx_ll_rtc.h ****   * @retval Value between Min_Data=0x00 and Max_Data=0x59
1982:../../..\CubeG4\include/stm32g4xx_ll_rtc.h ****   */
1983:../../..\CubeG4\include/stm32g4xx_ll_rtc.h **** __STATIC_INLINE uint32_t LL_RTC_ALMA_GetSecond(RTC_TypeDef *RTCx)
1984:../../..\CubeG4\include/stm32g4xx_ll_rtc.h **** {
1985:../../..\CubeG4\include/stm32g4xx_ll_rtc.h ****   return (uint32_t)((READ_BIT(RTCx->ALRMAR, (RTC_ALRMAR_ST | RTC_ALRMAR_SU))) >> RTC_ALRMAR_SU_Pos)
1986:../../..\CubeG4\include/stm32g4xx_ll_rtc.h **** }
1987:../../..\CubeG4\include/stm32g4xx_ll_rtc.h **** 
1988:../../..\CubeG4\include/stm32g4xx_ll_rtc.h **** /**
1989:../../..\CubeG4\include/stm32g4xx_ll_rtc.h ****   * @brief  Set Alarm A Time (hour, minute and second) in BCD format
1990:../../..\CubeG4\include/stm32g4xx_ll_rtc.h ****   * @rmtoll RTC_ALRMAR       PM            LL_RTC_ALMA_ConfigTime\n
1991:../../..\CubeG4\include/stm32g4xx_ll_rtc.h ****   *         RTC_ALRMAR       HT            LL_RTC_ALMA_ConfigTime\n
1992:../../..\CubeG4\include/stm32g4xx_ll_rtc.h ****   *         RTC_ALRMAR       HU            LL_RTC_ALMA_ConfigTime\n
1993:../../..\CubeG4\include/stm32g4xx_ll_rtc.h ****   *         RTC_ALRMAR       MNT           LL_RTC_ALMA_ConfigTime\n
1994:../../..\CubeG4\include/stm32g4xx_ll_rtc.h ****   *         RTC_ALRMAR       MNU           LL_RTC_ALMA_ConfigTime\n
1995:../../..\CubeG4\include/stm32g4xx_ll_rtc.h ****   *         RTC_ALRMAR       ST            LL_RTC_ALMA_ConfigTime\n
1996:../../..\CubeG4\include/stm32g4xx_ll_rtc.h ****   *         RTC_ALRMAR       SU            LL_RTC_ALMA_ConfigTime
1997:../../..\CubeG4\include/stm32g4xx_ll_rtc.h ****   * @param  RTCx RTC Instance
1998:../../..\CubeG4\include/stm32g4xx_ll_rtc.h ****   * @param  Format12_24 This parameter can be one of the following values:
1999:../../..\CubeG4\include/stm32g4xx_ll_rtc.h ****   *         @arg @ref LL_RTC_ALMA_TIME_FORMAT_AM
2000:../../..\CubeG4\include/stm32g4xx_ll_rtc.h ****   *         @arg @ref LL_RTC_ALMA_TIME_FORMAT_PM
2001:../../..\CubeG4\include/stm32g4xx_ll_rtc.h ****   * @param  Hours Value between Min_Data=0x01 and Max_Data=0x12 or between Min_Data=0x00 and Max_Da
2002:../../..\CubeG4\include/stm32g4xx_ll_rtc.h ****   * @param  Minutes Value between Min_Data=0x00 and Max_Data=0x59
2003:../../..\CubeG4\include/stm32g4xx_ll_rtc.h ****   * @param  Seconds Value between Min_Data=0x00 and Max_Data=0x59
2004:../../..\CubeG4\include/stm32g4xx_ll_rtc.h ****   * @retval None
2005:../../..\CubeG4\include/stm32g4xx_ll_rtc.h ****   */
2006:../../..\CubeG4\include/stm32g4xx_ll_rtc.h **** __STATIC_INLINE void LL_RTC_ALMA_ConfigTime(RTC_TypeDef *RTCx, uint32_t Format12_24, uint32_t Hours
 230              		.loc 2 2006 22 view .LVU60
 231              	.LBB101:
2007:../../..\CubeG4\include/stm32g4xx_ll_rtc.h ****                                             uint32_t Seconds)
2008:../../..\CubeG4\include/stm32g4xx_ll_rtc.h **** {
2009:../../..\CubeG4\include/stm32g4xx_ll_rtc.h ****   register uint32_t temp;
 232              		.loc 2 2009 3 view .LVU61
2010:../../..\CubeG4\include/stm32g4xx_ll_rtc.h **** 
2011:../../..\CubeG4\include/stm32g4xx_ll_rtc.h ****   temp = Format12_24 | (((Hours & 0xF0U) << (RTC_ALRMAR_HT_Pos - 4U)) | ((Hours & 0x0FU) << RTC_ALR
 233              		.loc 2 2011 3 view .LVU62
2012:../../..\CubeG4\include/stm32g4xx_ll_rtc.h ****          (((Minutes & 0xF0U) << (RTC_ALRMAR_MNT_Pos - 4U)) | ((Minutes & 0x0FU) << RTC_ALRMAR_MNU_P
2013:../../..\CubeG4\include/stm32g4xx_ll_rtc.h ****          (((Seconds & 0xF0U) << (RTC_ALRMAR_ST_Pos - 4U)) | ((Seconds & 0x0FU) << RTC_ALRMAR_SU_Pos
2014:../../..\CubeG4\include/stm32g4xx_ll_rtc.h **** 
2015:../../..\CubeG4\include/stm32g4xx_ll_rtc.h ****   MODIFY_REG(RTCx->ALRMAR, RTC_ALRMAR_PM | RTC_ALRMAR_HT | RTC_ALRMAR_HU | RTC_ALRMAR_MNT | RTC_ALR
 234              		.loc 2 2015 3 view .LVU63
 235              	.LBE101:
 236              	.LBE100:
 237              		.loc 1 553 5 is_stmt 0 view .LVU64
 238 0034 9379     		ldrb	r3, [r2, #6]	@ zero_extendqisi2
 239              	.LVL12:
 240              		.loc 1 553 5 view .LVU65
 241 0036 1479     		ldrb	r4, [r2, #4]	@ zero_extendqisi2
 242              	.LVL13:
 243              	.LBB104:
 244              	.LBB102:
 245              		.loc 2 2015 3 view .LVU66
 246 0038 016C     		ldr	r1, [r0, #64]
2011:../../..\CubeG4\include/stm32g4xx_ll_rtc.h ****          (((Minutes & 0xF0U) << (RTC_ALRMAR_MNT_Pos - 4U)) | ((Minutes & 0x0FU) << RTC_ALRMAR_MNU_P
 247              		.loc 2 2011 8 view .LVU67
 248 003a 3B43     		orrs	r3, r3, r7
 249              	.LVL14:
2011:../../..\CubeG4\include/stm32g4xx_ll_rtc.h ****          (((Minutes & 0xF0U) << (RTC_ALRMAR_MNT_Pos - 4U)) | ((Minutes & 0x0FU) << RTC_ALRMAR_MNU_P
 250              		.loc 2 2011 8 view .LVU68
 251 003c 43EA0443 		orr	r3, r3, r4, lsl #16
 252              	.LBE102:
 253              	.LBE104:
 254              		.loc 1 553 5 view .LVU69
 255 0040 5479     		ldrb	r4, [r2, #5]	@ zero_extendqisi2
 256              	.LVL15:
 257              	.LBB105:
 258              	.LBB103:
 259              		.loc 2 2015 3 view .LVU70
 260 0042 21F07F11 		bic	r1, r1, #8323199
2011:../../..\CubeG4\include/stm32g4xx_ll_rtc.h ****          (((Minutes & 0xF0U) << (RTC_ALRMAR_MNT_Pos - 4U)) | ((Minutes & 0x0FU) << RTC_ALRMAR_MNU_P
 261              		.loc 2 2011 8 view .LVU71
 262 0046 43EA0423 		orr	r3, r3, r4, lsl #8
 263              		.loc 2 2015 3 view .LVU72
 264 004a 21F4FE41 		bic	r1, r1, #32512
 265 004e 0B43     		orrs	r3, r3, r1
 266              	.LVL16:
 267              	.L20:
 268              		.loc 2 2015 3 view .LVU73
 269              	.LBE103:
 270              	.LBE105:
 271              	.LBB106:
 272              	.LBB107:
 273 0050 0364     		str	r3, [r0, #64]
 274              	.LBE107:
 275              	.LBE106:
 554:../../..\CubeG4\src/stm32g4xx_ll_rtc.c ****                            RTC_AlarmStruct->AlarmTime.Minutes, RTC_AlarmStruct->AlarmTime.Seconds);
 555:../../..\CubeG4\src/stm32g4xx_ll_rtc.c ****   }
 556:../../..\CubeG4\src/stm32g4xx_ll_rtc.c ****   else
 557:../../..\CubeG4\src/stm32g4xx_ll_rtc.c ****   {
 558:../../..\CubeG4\src/stm32g4xx_ll_rtc.c ****     LL_RTC_ALMA_ConfigTime(RTCx, RTC_AlarmStruct->AlarmTime.TimeFormat,
 559:../../..\CubeG4\src/stm32g4xx_ll_rtc.c ****                            __LL_RTC_CONVERT_BIN2BCD(RTC_AlarmStruct->AlarmTime.Hours),
 560:../../..\CubeG4\src/stm32g4xx_ll_rtc.c ****                            __LL_RTC_CONVERT_BIN2BCD(RTC_AlarmStruct->AlarmTime.Minutes),
 561:../../..\CubeG4\src/stm32g4xx_ll_rtc.c ****                            __LL_RTC_CONVERT_BIN2BCD(RTC_AlarmStruct->AlarmTime.Seconds));
 562:../../..\CubeG4\src/stm32g4xx_ll_rtc.c ****   }
 563:../../..\CubeG4\src/stm32g4xx_ll_rtc.c ****   /* Set ALARM mask */
 564:../../..\CubeG4\src/stm32g4xx_ll_rtc.c ****   LL_RTC_ALMA_SetMask(RTCx, RTC_AlarmStruct->AlarmMask);
 276              		.loc 1 564 3 is_stmt 1 view .LVU74
 277              	.LVL17:
 278              	.LBB115:
 279              	.LBI115:
